---
triple:          'arm64-apple-darwin'
binary-path:     a.out
relocations:
  - { offsetInCU: 0x59, offset: 0x59, size: 0x8, addend: 0x0, symName: __ZN8interval5emptyE, symObjAddr: 0x4FB98, symBinAddr: 0x100010000, symSize: 0x0 }
  - { offsetInCU: 0x14B, offset: 0x14B, size: 0x8, addend: 0x0, symName: __ZN8interval8universeE, symObjAddr: 0x4FBA8, symBinAddr: 0x100010010, symSize: 0x0 }
  - { offsetInCU: 0x158, offset: 0x158, size: 0x8, addend: 0x0, symName: __Z11write_colorRNSt3__113basic_ostreamIcNS_11char_traitsIcEEEERK4vec3, symObjAddr: 0x3C, symBinAddr: 0x100000C64, symSize: 0x19C }
  - { offsetInCU: 0x17D, offset: 0x17D, size: 0x8, addend: 0x0, symName: __ZZ11write_colorRNSt3__113basic_ostreamIcNS_11char_traitsIcEEEERK4vec3E9intensity, symObjAddr: 0x4FBB8, symBinAddr: 0x100010020, symSize: 0x0 }
  - { offsetInCU: 0x5511, offset: 0x5511, size: 0x8, addend: 0x0, symName: __ZNSt3__124__put_character_sequenceB8ue170006IcNS_11char_traitsIcEEEERNS_13basic_ostreamIT_T0_EES7_PKS4_m, symObjAddr: 0x4A68, symBinAddr: 0x100005690, symSize: 0x1EC }
  - { offsetInCU: 0x848F, offset: 0x848F, size: 0x8, addend: 0x0, symName: __ZNSt3__1lsB8ue170006INS_11char_traitsIcEEEERNS_13basic_ostreamIcT_EES6_c, symObjAddr: 0x2E4, symBinAddr: 0x100000F0C, symSize: 0x34 }
  - { offsetInCU: 0x84D5, offset: 0x84D5, size: 0x8, addend: 0x0, symName: __ZNSt3__111make_sharedB8ue170006I10lambertianJ4vec3EvEENS_10shared_ptrIT_EEDpOT0_, symObjAddr: 0xD0C, symBinAddr: 0x100001934, symSize: 0x40 }
  - { offsetInCU: 0x8518, offset: 0x8518, size: 0x8, addend: 0x0, symName: __ZNSt3__111make_sharedB8ue170006I6sphereJ4vec3iRNS_10shared_ptrI10lambertianEEEvEENS3_IT_EEDpOT0_, symObjAddr: 0xDC0, symBinAddr: 0x1000019E8, symSize: 0x50 }
  - { offsetInCU: 0x876D, offset: 0x876D, size: 0x8, addend: 0x0, symName: __ZNSt3__111make_sharedB8ue170006I10lambertianJR4vec3EvEENS_10shared_ptrIT_EEDpOT0_, symObjAddr: 0x1040, symBinAddr: 0x100001C68, symSize: 0x40 }
  - { offsetInCU: 0x899A, offset: 0x899A, size: 0x8, addend: 0x0, symName: __ZNSt3__111make_sharedB8ue170006I6sphereJR4vec3dRNS_10shared_ptrI8materialEEEvEENS4_IT_EEDpOT0_, symObjAddr: 0x10FC, symBinAddr: 0x100001D24, symSize: 0x50 }
  - { offsetInCU: 0x8A05, offset: 0x8A05, size: 0x8, addend: 0x0, symName: __ZNSt3__111make_sharedB8ue170006I5metalJR4vec3RdEvEENS_10shared_ptrIT_EEDpOT0_, symObjAddr: 0x1204, symBinAddr: 0x100001E2C, symSize: 0x48 }
  - { offsetInCU: 0x8C46, offset: 0x8C46, size: 0x8, addend: 0x0, symName: __ZNSt3__111make_sharedB8ue170006I10dielectricJdEvEENS_10shared_ptrIT_EEDpOT0_, symObjAddr: 0x12C8, symBinAddr: 0x100001EF0, symSize: 0x40 }
  - { offsetInCU: 0x8E73, offset: 0x8E73, size: 0x8, addend: 0x0, symName: __ZNSt3__111make_sharedB8ue170006I6sphereJ4vec3dRNS_10shared_ptrI10dielectricEEEvEENS3_IT_EEDpOT0_, symObjAddr: 0x13B0, symBinAddr: 0x100001FD8, symSize: 0x50 }
  - { offsetInCU: 0x8EDE, offset: 0x8EDE, size: 0x8, addend: 0x0, symName: __ZNSt3__111make_sharedB8ue170006I6sphereJ4vec3dRNS_10shared_ptrI10lambertianEEEvEENS3_IT_EEDpOT0_, symObjAddr: 0x1400, symBinAddr: 0x100002028, symSize: 0x50 }
  - { offsetInCU: 0x8F49, offset: 0x8F49, size: 0x8, addend: 0x0, symName: __ZNSt3__111make_sharedB8ue170006I5metalJ4vec3dEvEENS_10shared_ptrIT_EEDpOT0_, symObjAddr: 0x1450, symBinAddr: 0x100002078, symSize: 0x48 }
  - { offsetInCU: 0x8FA0, offset: 0x8FA0, size: 0x8, addend: 0x0, symName: __ZNSt3__111make_sharedB8ue170006I6sphereJ4vec3dRNS_10shared_ptrI5metalEEEvEENS3_IT_EEDpOT0_, symObjAddr: 0x1498, symBinAddr: 0x1000020C0, symSize: 0x50 }
  - { offsetInCU: 0x900B, offset: 0x900B, size: 0x8, addend: 0x0, symName: __ZNSt3__1neB8ue170006IPKNS_10shared_ptrI8hittableEEEEbRKNS_11__wrap_iterIT_EESA_, symObjAddr: 0x1B70, symBinAddr: 0x100002798, symSize: 0x34 }
  - { offsetInCU: 0x904E, offset: 0x904E, size: 0x8, addend: 0x0, symName: __ZNSt3__1eqB8ue170006IPKNS_10shared_ptrI8hittableEEEEbRKNS_11__wrap_iterIT_EESA_, symObjAddr: 0x1DAC, symBinAddr: 0x1000029D4, symSize: 0x48 }
  - { offsetInCU: 0x9091, offset: 0x9091, size: 0x8, addend: 0x0, symName: __ZNSt3__134__libcpp_atomic_refcount_incrementB8ue170006IlEET_RS1_, symObjAddr: 0x1F90, symBinAddr: 0x100002BB8, symSize: 0x30 }
  - { offsetInCU: 0x90C6, offset: 0x90C6, size: 0x8, addend: 0x0, symName: __ZNSt3__14swapB8ue170006IP8materialEENS_9enable_ifIXaasr21is_move_constructibleIT_EE5valuesr18is_move_assignableIS4_EE5valueEvE4typeERS4_S7_, symObjAddr: 0x1FC0, symBinAddr: 0x100002BE8, symSize: 0x3C }
  - { offsetInCU: 0x9117, offset: 0x9117, size: 0x8, addend: 0x0, symName: __ZNSt3__14swapB8ue170006IPNS_19__shared_weak_countEEENS_9enable_ifIXaasr21is_move_constructibleIT_EE5valuesr18is_move_assignableIS4_EE5valueEvE4typeERS4_S7_, symObjAddr: 0x1FFC, symBinAddr: 0x100002C24, symSize: 0x3C }
  - { offsetInCU: 0x9168, offset: 0x9168, size: 0x8, addend: 0x0, symName: __ZNSt3__112__to_addressB8ue170006INS_10shared_ptrI8hittableEEEEPT_S5_, symObjAddr: 0x2484, symBinAddr: 0x1000030AC, symSize: 0x14 }
  - { offsetInCU: 0x919D, offset: 0x919D, size: 0x8, addend: 0x0, symName: __ZNSt3__13maxB8ue170006ImEERKT_S3_S3_, symObjAddr: 0x294C, symBinAddr: 0x100003574, symSize: 0x2C }
  - { offsetInCU: 0x91E0, offset: 0x91E0, size: 0x8, addend: 0x0, symName: __ZNSt3__13minB8ue170006ImEERKT_S3_S3_, symObjAddr: 0x2978, symBinAddr: 0x1000035A0, symSize: 0x2C }
  - { offsetInCU: 0x9424, offset: 0x9424, size: 0x8, addend: 0x0, symName: __ZNSt3__13minB8ue170006ImNS_6__lessIvvEEEERKT_S5_S5_T0_, symObjAddr: 0x2A04, symBinAddr: 0x10000362C, symSize: 0x54 }
  - { offsetInCU: 0x94C3, offset: 0x94C3, size: 0x8, addend: 0x0, symName: __ZNSt3__120__throw_length_errorB8ue170006EPKc, symObjAddr: 0x2AE0, symBinAddr: 0x100003708, symSize: 0x64 }
  - { offsetInCU: 0x94ED, offset: 0x94ED, size: 0x8, addend: 0x0, symName: __ZNSt3__13maxB8ue170006ImNS_6__lessIvvEEEERKT_S5_S5_T0_, symObjAddr: 0x2C24, symBinAddr: 0x10000384C, symSize: 0x54 }
  - { offsetInCU: 0x9547, offset: 0x9547, size: 0x8, addend: 0x0, symName: __ZNSt3__119__allocate_at_leastB8ue170006INS_9allocatorINS_10shared_ptrI8hittableEEEEEENS_19__allocation_resultINS_16allocator_traitsIT_E7pointerEEERS8_m, symObjAddr: 0x2D88, symBinAddr: 0x1000039B0, symSize: 0x40 }
  - { offsetInCU: 0x958A, offset: 0x958A, size: 0x8, addend: 0x0, symName: __ZNSt3__117__libcpp_allocateB8ue170006Emm, symObjAddr: 0x2F0C, symBinAddr: 0x100003B34, symSize: 0x28 }
  - { offsetInCU: 0x95C7, offset: 0x95C7, size: 0x8, addend: 0x0, symName: __ZNSt3__121__libcpp_operator_newB8ue170006IJmEEEPvDpT_, symObjAddr: 0x2F34, symBinAddr: 0x100003B5C, symSize: 0x24 }
  - { offsetInCU: 0x9600, offset: 0x9600, size: 0x8, addend: 0x0, symName: __ZNSt3__142__uninitialized_allocator_move_if_noexceptB8ue170006INS_9allocatorINS_10shared_ptrI8hittableEEEENS_16reverse_iteratorIPS4_EES8_S8_EET2_RT_T0_T1_S9_, symObjAddr: 0x3074, symBinAddr: 0x100003C9C, symSize: 0x12C }
  - { offsetInCU: 0x96A0, offset: 0x96A0, size: 0x8, addend: 0x0, symName: __ZNSt3__14swapB8ue170006IPNS_10shared_ptrI8hittableEEEENS_9enable_ifIXaasr21is_move_constructibleIT_EE5valuesr18is_move_assignableIS6_EE5valueEvE4typeERS6_S9_, symObjAddr: 0x31EC, symBinAddr: 0x100003E14, symSize: 0x3C }
  - { offsetInCU: 0x96F1, offset: 0x96F1, size: 0x8, addend: 0x0, symName: __ZNSt3__122__make_exception_guardB8ue170006INS_29_AllocatorDestroyRangeReverseINS_9allocatorINS_10shared_ptrI8hittableEEEENS_16reverse_iteratorIPS5_EEEEEENS_28__exception_guard_exceptionsIT_EESC_, symObjAddr: 0x331C, symBinAddr: 0x100003F44, symSize: 0x4C }
  - { offsetInCU: 0x9727, offset: 0x9727, size: 0x8, addend: 0x0, symName: __ZNSt3__1neB8ue170006IPNS_10shared_ptrI8hittableEES4_EEbRKNS_16reverse_iteratorIT_EERKNS5_IT0_EE, symObjAddr: 0x33AC, symBinAddr: 0x100003FD4, symSize: 0x48 }
  - { offsetInCU: 0x9773, offset: 0x9773, size: 0x8, addend: 0x0, symName: __ZNSt3__112__to_addressB8ue170006INS_16reverse_iteratorIPNS_10shared_ptrI8hittableEEEEvEEu7__decayIDTclsr19__to_address_helperIT_EE6__callclsr3stdE7declvalIRKS7_EEEEES9_, symObjAddr: 0x3428, symBinAddr: 0x100004050, symSize: 0x24 }
  - { offsetInCU: 0x97D2, offset: 0x97D2, size: 0x8, addend: 0x0, symName: __ZNSt3__119__allocator_destroyB8ue170006INS_9allocatorINS_10shared_ptrI8hittableEEEENS_16reverse_iteratorINS6_IPS4_EEEES9_EEvRT_T0_T1_, symObjAddr: 0x377C, symBinAddr: 0x1000043A4, symSize: 0x70 }
  - { offsetInCU: 0x9837, offset: 0x9837, size: 0x8, addend: 0x0, symName: __ZNSt3__1neB8ue170006INS_16reverse_iteratorIPNS_10shared_ptrI8hittableEEEES6_EEbRKNS1_IT_EERKNS1_IT0_EE, symObjAddr: 0x3828, symBinAddr: 0x100004450, symSize: 0x60 }
  - { offsetInCU: 0x9883, offset: 0x9883, size: 0x8, addend: 0x0, symName: __ZNSt3__112__to_addressB8ue170006INS_16reverse_iteratorINS1_IPNS_10shared_ptrI8hittableEEEEEEvEEu7__decayIDTclsr19__to_address_helperIT_EE6__callclsr3stdE7declvalIRKS8_EEEEESA_, symObjAddr: 0x38B4, symBinAddr: 0x1000044DC, symSize: 0x24 }
  - { offsetInCU: 0x98E2, offset: 0x98E2, size: 0x8, addend: 0x0, symName: __ZNSt3__119__libcpp_deallocateB8ue170006EPvmm, symObjAddr: 0x3C6C, symBinAddr: 0x100004894, symSize: 0x30 }
  - { offsetInCU: 0x992A, offset: 0x992A, size: 0x8, addend: 0x0, symName: __ZNSt3__127__do_deallocate_handle_sizeB8ue170006IJEEEvPvmDpT_, symObjAddr: 0x3C9C, symBinAddr: 0x1000048C4, symSize: 0x28 }
  - { offsetInCU: 0x9968, offset: 0x9968, size: 0x8, addend: 0x0, symName: __ZNSt3__124__libcpp_operator_deleteB8ue170006IJPvEEEvDpT_, symObjAddr: 0x3CC4, symBinAddr: 0x1000048EC, symSize: 0x24 }
  - { offsetInCU: 0x999D, offset: 0x999D, size: 0x8, addend: 0x0, symName: __ZNSt3__1lsB8ue170006INS_11char_traitsIcEEEERNS_13basic_ostreamIcT_EES6_PKc, symObjAddr: 0x41C8, symBinAddr: 0x100004DF0, symSize: 0x48 }
  - { offsetInCU: 0x99E3, offset: 0x99E3, size: 0x8, addend: 0x0, symName: __ZNSt3__15flushB8ue170006IcNS_11char_traitsIcEEEERNS_13basic_ostreamIT_T0_EES7_, symObjAddr: 0x423C, symBinAddr: 0x100004E64, symSize: 0x28 }
  - { offsetInCU: 0x9A23, offset: 0x9A23, size: 0x8, addend: 0x0, symName: __ZNSt3__116__pad_and_outputB8ue170006IcNS_11char_traitsIcEEEENS_19ostreambuf_iteratorIT_T0_EES6_PKS4_S8_S8_RNS_8ios_baseES4_, symObjAddr: 0x4CA4, symBinAddr: 0x1000058CC, symSize: 0x240 }
  - { offsetInCU: 0x9AF2, offset: 0x9AF2, size: 0x8, addend: 0x0, symName: __ZNSt3__112__to_addressB8ue170006IKcEEPT_S3_, symObjAddr: 0x520C, symBinAddr: 0x100005E34, symSize: 0x14 }
  - { offsetInCU: 0x9B5A, offset: 0x9B5A, size: 0x8, addend: 0x0, symName: __ZNSt3__19use_facetB8ue170006INS_5ctypeIcEEEERKT_RKNS_6localeE, symObjAddr: 0x548C, symBinAddr: 0x1000060B4, symSize: 0x2C }
  - { offsetInCU: 0xA027, offset: 0xA027, size: 0x8, addend: 0x0, symName: __ZNSt3__118__constexpr_strlenB8ue170006EPKc, symObjAddr: 0x5524, symBinAddr: 0x10000614C, symSize: 0x24 }
  - { offsetInCU: 0xA053, offset: 0xA053, size: 0x8, addend: 0x0, symName: __ZNSt3__134__libcpp_atomic_refcount_decrementB8ue170006IlEET_RS1_, symObjAddr: 0x5BB4, symBinAddr: 0x1000067DC, symSize: 0x30 }
  - { offsetInCU: 0xA088, offset: 0xA088, size: 0x8, addend: 0x0, symName: __ZNSt3__115allocate_sharedB8ue170006I10lambertianNS_9allocatorIS1_EEJ4vec3EvEENS_10shared_ptrIT_EERKT0_DpOT1_, symObjAddr: 0x5C38, symBinAddr: 0x100006860, symSize: 0x98 }
  - { offsetInCU: 0xA433, offset: 0xA433, size: 0x8, addend: 0x0, symName: __ZNSt3__115allocate_sharedB8ue170006I6sphereNS_9allocatorIS1_EEJ4vec3iRNS_10shared_ptrI10lambertianEEEvEENS5_IT_EERKT0_DpOT1_, symObjAddr: 0x6A10, symBinAddr: 0x100007638, symSize: 0xA8 }
  - { offsetInCU: 0xA807, offset: 0xA807, size: 0x8, addend: 0x0, symName: __ZNSt3__115allocate_sharedB8ue170006I10lambertianNS_9allocatorIS1_EEJR4vec3EvEENS_10shared_ptrIT_EERKT0_DpOT1_, symObjAddr: 0x7A34, symBinAddr: 0x10000865C, symSize: 0x98 }
  - { offsetInCU: 0xA880, offset: 0xA880, size: 0x8, addend: 0x0, symName: __ZNSt3__115allocate_sharedB8ue170006I6sphereNS_9allocatorIS1_EEJR4vec3dRNS_10shared_ptrI8materialEEEvEENS6_IT_EERKT0_DpOT1_, symObjAddr: 0x7C2C, symBinAddr: 0x100008854, symSize: 0xA8 }
  - { offsetInCU: 0xA922, offset: 0xA922, size: 0x8, addend: 0x0, symName: __ZNSt3__115allocate_sharedB8ue170006I5metalNS_9allocatorIS1_EEJR4vec3RdEvEENS_10shared_ptrIT_EERKT0_DpOT1_, symObjAddr: 0x7E18, symBinAddr: 0x100008A40, symSize: 0xA0 }
  - { offsetInCU: 0xACE1, offset: 0xACE1, size: 0x8, addend: 0x0, symName: __ZNSt3__115allocate_sharedB8ue170006I10dielectricNS_9allocatorIS1_EEJdEvEENS_10shared_ptrIT_EERKT0_DpOT1_, symObjAddr: 0x8B14, symBinAddr: 0x10000973C, symSize: 0x98 }
  - { offsetInCU: 0xB08C, offset: 0xB08C, size: 0x8, addend: 0x0, symName: __ZNSt3__115allocate_sharedB8ue170006I6sphereNS_9allocatorIS1_EEJ4vec3dRNS_10shared_ptrI10dielectricEEEvEENS5_IT_EERKT0_DpOT1_, symObjAddr: 0x99A8, symBinAddr: 0x10000A5D0, symSize: 0xA8 }
  - { offsetInCU: 0xB12E, offset: 0xB12E, size: 0x8, addend: 0x0, symName: __ZNSt3__115allocate_sharedB8ue170006I6sphereNS_9allocatorIS1_EEJ4vec3dRNS_10shared_ptrI10lambertianEEEvEENS5_IT_EERKT0_DpOT1_, symObjAddr: 0x9C38, symBinAddr: 0x10000A860, symSize: 0xA8 }
  - { offsetInCU: 0xB1D0, offset: 0xB1D0, size: 0x8, addend: 0x0, symName: __ZNSt3__115allocate_sharedB8ue170006I5metalNS_9allocatorIS1_EEJ4vec3dEvEENS_10shared_ptrIT_EERKT0_DpOT1_, symObjAddr: 0x9E24, symBinAddr: 0x10000AA4C, symSize: 0xA0 }
  - { offsetInCU: 0xB25D, offset: 0xB25D, size: 0x8, addend: 0x0, symName: __ZNSt3__115allocate_sharedB8ue170006I6sphereNS_9allocatorIS1_EEJ4vec3dRNS_10shared_ptrI5metalEEEvEENS5_IT_EERKT0_DpOT1_, symObjAddr: 0x9FC4, symBinAddr: 0x10000ABEC, symSize: 0xA8 }
  - { offsetInCU: 0xB732, offset: 0xB732, size: 0x8, addend: 0x0, symName: __ZSt28__throw_bad_array_new_lengthB8ue170006v, symObjAddr: 0x2ED8, symBinAddr: 0x100003B00, symSize: 0x34 }
  - { offsetInCU: 0xC082, offset: 0xC082, size: 0x8, addend: 0x0, symName: __ZNSt3__16vectorINS_10shared_ptrI8hittableEENS_9allocatorIS3_EEE26__swap_out_circular_bufferERNS_14__split_bufferIS3_RS5_EE, symObjAddr: 0x2754, symBinAddr: 0x10000337C, symSize: 0x110 }
  - { offsetInCU: 0xC487, offset: 0xC487, size: 0x8, addend: 0x0, symName: __Z4fmaxB8ue170006IidENSt3__19enable_ifIXaasr3std13is_arithmeticIT_EE5valuesr3std13is_arithmeticIT0_EE5valueENS0_9__promoteIS2_S3_vEEE4type4typeES2_S3_, symObjAddr: 0x7264, symBinAddr: 0x100007E8C, symSize: 0x2C }
  - { offsetInCU: 0xC75B, offset: 0xC75B, size: 0x8, addend: 0x0, symName: __Z3powB8ue170006IdiENSt3__19enable_ifIXaasr3std13is_arithmeticIT_EE5valuesr3std13is_arithmeticIT0_EE5valueENS0_9__promoteIS2_S3_vEEE4type4typeES2_S3_, symObjAddr: 0x9620, symBinAddr: 0x10000A248, symSize: 0x38 }
  - { offsetInCU: 0xEAC7, offset: 0xEAC7, size: 0x8, addend: 0x0, symName: __ZN8intervalC1Edd, symObjAddr: 0x0, symBinAddr: 0x100000C28, symSize: 0x3C }
  - { offsetInCU: 0xEB0D, offset: 0xEB0D, size: 0x8, addend: 0x0, symName: __ZNK4vec35get_xEv, symObjAddr: 0x1D8, symBinAddr: 0x100000E00, symSize: 0x18 }
  - { offsetInCU: 0xEB33, offset: 0xEB33, size: 0x8, addend: 0x0, symName: __ZNK4vec35get_yEv, symObjAddr: 0x1F0, symBinAddr: 0x100000E18, symSize: 0x18 }
  - { offsetInCU: 0xEB59, offset: 0xEB59, size: 0x8, addend: 0x0, symName: __ZNK4vec35get_zEv, symObjAddr: 0x208, symBinAddr: 0x100000E30, symSize: 0x18 }
  - { offsetInCU: 0xEB7E, offset: 0xEB7E, size: 0x8, addend: 0x0, symName: __Z15linear_to_gammad, symObjAddr: 0x220, symBinAddr: 0x100000E48, symSize: 0x44 }
  - { offsetInCU: 0xEBAB, offset: 0xEBAB, size: 0x8, addend: 0x0, symName: __ZNK8interval5clampEd, symObjAddr: 0x264, symBinAddr: 0x100000E8C, symSize: 0x80 }
  - { offsetInCU: 0xEBDF, offset: 0xEBDF, size: 0x8, addend: 0x0, symName: _main, symObjAddr: 0x318, symBinAddr: 0x100000F40, symSize: 0x99C }
  - { offsetInCU: 0xEDB5, offset: 0xEDB5, size: 0x8, addend: 0x0, symName: __ZN13hittable_listC1Ev, symObjAddr: 0xCB4, symBinAddr: 0x1000018DC, symSize: 0x2C }
  - { offsetInCU: 0xEFC8, offset: 0xEFC8, size: 0x8, addend: 0x0, symName: __ZN6cameraC1Ev, symObjAddr: 0xCE0, symBinAddr: 0x100001908, symSize: 0x2C }
  - { offsetInCU: 0xEFF4, offset: 0xEFF4, size: 0x8, addend: 0x0, symName: __ZN4vec3C1Eddd, symObjAddr: 0xD4C, symBinAddr: 0x100001974, symSize: 0x44 }
  - { offsetInCU: 0xF048, offset: 0xF048, size: 0x8, addend: 0x0, symName: __ZN13hittable_list3addENSt3__110shared_ptrI8hittableEE, symObjAddr: 0xD90, symBinAddr: 0x1000019B8, symSize: 0x30 }
  - { offsetInCU: 0xF0A0, offset: 0xF0A0, size: 0x8, addend: 0x0, symName: __ZNSt3__110shared_ptrI8hittableEC1B8ue170006I6spherevEEONS0_IT_EE, symObjAddr: 0xE10, symBinAddr: 0x100001A38, symSize: 0x34 }
  - { offsetInCU: 0xF0E3, offset: 0xF0E3, size: 0x8, addend: 0x0, symName: __ZNSt3__110shared_ptrI8hittableED1B8ue170006Ev, symObjAddr: 0xE44, symBinAddr: 0x100001A6C, symSize: 0x2C }
  - { offsetInCU: 0xF10D, offset: 0xF10D, size: 0x8, addend: 0x0, symName: __ZNSt3__110shared_ptrI6sphereED1B8ue170006Ev, symObjAddr: 0xE70, symBinAddr: 0x100001A98, symSize: 0x2C }
  - { offsetInCU: 0xF137, offset: 0xF137, size: 0x8, addend: 0x0, symName: __Z13random_doublev, symObjAddr: 0xE9C, symBinAddr: 0x100001AC4, symSize: 0x24 }
  - { offsetInCU: 0xF154, offset: 0xF154, size: 0x8, addend: 0x0, symName: __ZmiRK4vec3S1_, symObjAddr: 0xEC0, symBinAddr: 0x100001AE8, symSize: 0x70 }
  - { offsetInCU: 0xF18F, offset: 0xF18F, size: 0x8, addend: 0x0, symName: __ZNK4vec310get_lengthEv, symObjAddr: 0xF30, symBinAddr: 0x100001B58, symSize: 0x28 }
  - { offsetInCU: 0xF1B5, offset: 0xF1B5, size: 0x8, addend: 0x0, symName: __ZNSt3__110shared_ptrI8materialEC1B8ue170006Ev, symObjAddr: 0xF58, symBinAddr: 0x100001B80, symSize: 0x2C }
  - { offsetInCU: 0xF1DE, offset: 0xF1DE, size: 0x8, addend: 0x0, symName: __ZmlRK4vec3S1_, symObjAddr: 0xF84, symBinAddr: 0x100001BAC, symSize: 0x70 }
  - { offsetInCU: 0xF219, offset: 0xF219, size: 0x8, addend: 0x0, symName: __ZN4vec36randomEv, symObjAddr: 0xFF4, symBinAddr: 0x100001C1C, symSize: 0x4C }
  - { offsetInCU: 0xF250, offset: 0xF250, size: 0x8, addend: 0x0, symName: __ZNSt3__110shared_ptrI8materialEaSB8ue170006I10lambertianvEERS2_ONS0_IT_EE, symObjAddr: 0x1080, symBinAddr: 0x100001CA8, symSize: 0x50 }
  - { offsetInCU: 0xF28F, offset: 0xF28F, size: 0x8, addend: 0x0, symName: __ZNSt3__110shared_ptrI10lambertianED1B8ue170006Ev, symObjAddr: 0x10D0, symBinAddr: 0x100001CF8, symSize: 0x2C }
  - { offsetInCU: 0xF2B9, offset: 0xF2B9, size: 0x8, addend: 0x0, symName: __ZN4vec36randomEdd, symObjAddr: 0x114C, symBinAddr: 0x100001D74, symSize: 0x6C }
  - { offsetInCU: 0xF2E9, offset: 0xF2E9, size: 0x8, addend: 0x0, symName: __Z13random_doubledd, symObjAddr: 0x11B8, symBinAddr: 0x100001DE0, symSize: 0x4C }
  - { offsetInCU: 0xF347, offset: 0xF347, size: 0x8, addend: 0x0, symName: __ZNSt3__110shared_ptrI8materialEaSB8ue170006I5metalvEERS2_ONS0_IT_EE, symObjAddr: 0x124C, symBinAddr: 0x100001E74, symSize: 0x50 }
  - { offsetInCU: 0xF386, offset: 0xF386, size: 0x8, addend: 0x0, symName: __ZNSt3__110shared_ptrI5metalED1B8ue170006Ev, symObjAddr: 0x129C, symBinAddr: 0x100001EC4, symSize: 0x2C }
  - { offsetInCU: 0xF3D3, offset: 0xF3D3, size: 0x8, addend: 0x0, symName: __ZNSt3__110shared_ptrI8materialEaSB8ue170006I10dielectricvEERS2_ONS0_IT_EE, symObjAddr: 0x1308, symBinAddr: 0x100001F30, symSize: 0x50 }
  - { offsetInCU: 0xF412, offset: 0xF412, size: 0x8, addend: 0x0, symName: __ZNSt3__110shared_ptrI10dielectricED1B8ue170006Ev, symObjAddr: 0x1358, symBinAddr: 0x100001F80, symSize: 0x2C }
  - { offsetInCU: 0xF43C, offset: 0xF43C, size: 0x8, addend: 0x0, symName: __ZNSt3__110shared_ptrI8materialED1B8ue170006Ev, symObjAddr: 0x1384, symBinAddr: 0x100001FAC, symSize: 0x2C }
  - { offsetInCU: 0xF466, offset: 0xF466, size: 0x8, addend: 0x0, symName: __ZN6camera6renderERK8hittable, symObjAddr: 0x14E8, symBinAddr: 0x100002110, symSize: 0x1E8 }
  - { offsetInCU: 0xF52C, offset: 0xF52C, size: 0x8, addend: 0x0, symName: __ZN13hittable_listD1Ev, symObjAddr: 0x16D0, symBinAddr: 0x1000022F8, symSize: 0x2C }
  - { offsetInCU: 0xF558, offset: 0xF558, size: 0x8, addend: 0x0, symName: __ZN8intervalC2Edd, symObjAddr: 0x16FC, symBinAddr: 0x100002324, symSize: 0x2C }
  - { offsetInCU: 0xF59E, offset: 0xF59E, size: 0x8, addend: 0x0, symName: __ZN13hittable_listC2Ev, symObjAddr: 0x1728, symBinAddr: 0x100002350, symSize: 0x50 }
  - { offsetInCU: 0xF5C8, offset: 0xF5C8, size: 0x8, addend: 0x0, symName: __ZN8hittableC2Ev, symObjAddr: 0x1778, symBinAddr: 0x1000023A0, symSize: 0x24 }
  - { offsetInCU: 0xF5F4, offset: 0xF5F4, size: 0x8, addend: 0x0, symName: __ZNSt3__16vectorINS_10shared_ptrI8hittableEENS_9allocatorIS3_EEEC1B8ue170006Ev, symObjAddr: 0x179C, symBinAddr: 0x1000023C4, symSize: 0x2C }
  - { offsetInCU: 0xF61E, offset: 0xF61E, size: 0x8, addend: 0x0, symName: __ZN13hittable_listD0Ev, symObjAddr: 0x17C8, symBinAddr: 0x1000023F0, symSize: 0x30 }
  - { offsetInCU: 0xF64A, offset: 0xF64A, size: 0x8, addend: 0x0, symName: __ZNK13hittable_list3hitERK3ray8intervalR10hit_record, symObjAddr: 0x17F8, symBinAddr: 0x100002420, symSize: 0x170 }
  - { offsetInCU: 0xF715, offset: 0xF715, size: 0x8, addend: 0x0, symName: __ZN8hittableD1Ev, symObjAddr: 0x1968, symBinAddr: 0x100002590, symSize: 0x14 }
  - { offsetInCU: 0xF73F, offset: 0xF73F, size: 0x8, addend: 0x0, symName: __ZN8hittableD0Ev, symObjAddr: 0x197C, symBinAddr: 0x1000025A4, symSize: 0xC }
  - { offsetInCU: 0xF769, offset: 0xF769, size: 0x8, addend: 0x0, symName: __ZNSt3__16vectorINS_10shared_ptrI8hittableEENS_9allocatorIS3_EEEC2B8ue170006Ev, symObjAddr: 0x1988, symBinAddr: 0x1000025B0, symSize: 0x4C }
  - { offsetInCU: 0xF79D, offset: 0xF79D, size: 0x8, addend: 0x0, symName: __ZNSt3__117__compressed_pairIPNS_10shared_ptrI8hittableEENS_9allocatorIS3_EEEC1B8ue170006IDnNS_18__default_init_tagEEEOT_OT0_, symObjAddr: 0x19D4, symBinAddr: 0x1000025FC, symSize: 0x3C }
  - { offsetInCU: 0xF7F5, offset: 0xF7F5, size: 0x8, addend: 0x0, symName: __ZNSt3__117__compressed_pairIPNS_10shared_ptrI8hittableEENS_9allocatorIS3_EEEC2B8ue170006IDnNS_18__default_init_tagEEEOT_OT0_, symObjAddr: 0x1A1C, symBinAddr: 0x100002644, symSize: 0x40 }
  - { offsetInCU: 0xF84D, offset: 0xF84D, size: 0x8, addend: 0x0, symName: __ZNSt3__122__compressed_pair_elemIPNS_10shared_ptrI8hittableEELi0ELb0EEC2B8ue170006IDnvEEOT_, symObjAddr: 0x1A5C, symBinAddr: 0x100002684, symSize: 0x1C }
  - { offsetInCU: 0xF88F, offset: 0xF88F, size: 0x8, addend: 0x0, symName: __ZNSt3__122__compressed_pair_elemINS_9allocatorINS_10shared_ptrI8hittableEEEELi1ELb1EEC2B8ue170006ENS_18__default_init_tagE, symObjAddr: 0x1A78, symBinAddr: 0x1000026A0, symSize: 0x2C }
  - { offsetInCU: 0xF8C4, offset: 0xF8C4, size: 0x8, addend: 0x0, symName: __ZNSt3__19allocatorINS_10shared_ptrI8hittableEEEC2B8ue170006Ev, symObjAddr: 0x1AA4, symBinAddr: 0x1000026CC, symSize: 0x2C }
  - { offsetInCU: 0xF8EE, offset: 0xF8EE, size: 0x8, addend: 0x0, symName: __ZNSt3__116__non_trivial_ifILb1ENS_9allocatorINS_10shared_ptrI8hittableEEEEEC2B8ue170006Ev, symObjAddr: 0x1AD0, symBinAddr: 0x1000026F8, symSize: 0x14 }
  - { offsetInCU: 0xF918, offset: 0xF918, size: 0x8, addend: 0x0, symName: __ZN10hit_recordC1Ev, symObjAddr: 0x1AE4, symBinAddr: 0x10000270C, symSize: 0x2C }
  - { offsetInCU: 0xF944, offset: 0xF944, size: 0x8, addend: 0x0, symName: __ZNKSt3__16vectorINS_10shared_ptrI8hittableEENS_9allocatorIS3_EEE5beginB8ue170006Ev, symObjAddr: 0x1B10, symBinAddr: 0x100002738, symSize: 0x30 }
  - { offsetInCU: 0xF96C, offset: 0xF96C, size: 0x8, addend: 0x0, symName: __ZNKSt3__16vectorINS_10shared_ptrI8hittableEENS_9allocatorIS3_EEE3endB8ue170006Ev, symObjAddr: 0x1B40, symBinAddr: 0x100002768, symSize: 0x30 }
  - { offsetInCU: 0xF994, offset: 0xF994, size: 0x8, addend: 0x0, symName: __ZNKSt3__111__wrap_iterIPKNS_10shared_ptrI8hittableEEEdeB8ue170006Ev, symObjAddr: 0x1BA4, symBinAddr: 0x1000027CC, symSize: 0x18 }
  - { offsetInCU: 0xF9BA, offset: 0xF9BA, size: 0x8, addend: 0x0, symName: __ZNKSt3__110shared_ptrI8hittableEptB8ue170006Ev, symObjAddr: 0x1BBC, symBinAddr: 0x1000027E4, symSize: 0x18 }
  - { offsetInCU: 0xF9E0, offset: 0xF9E0, size: 0x8, addend: 0x0, symName: __ZN10hit_recordaSERKS_, symObjAddr: 0x1BD4, symBinAddr: 0x1000027FC, symSize: 0x60 }
  - { offsetInCU: 0xFA11, offset: 0xFA11, size: 0x8, addend: 0x0, symName: __ZNSt3__111__wrap_iterIPKNS_10shared_ptrI8hittableEEEppB8ue170006Ev, symObjAddr: 0x1C34, symBinAddr: 0x10000285C, symSize: 0x20 }
  - { offsetInCU: 0xFA37, offset: 0xFA37, size: 0x8, addend: 0x0, symName: __ZN10hit_recordD1Ev, symObjAddr: 0x1C54, symBinAddr: 0x10000287C, symSize: 0x2C }
  - { offsetInCU: 0xFA63, offset: 0xFA63, size: 0x8, addend: 0x0, symName: __ZN10hit_recordC2Ev, symObjAddr: 0x1C80, symBinAddr: 0x1000028A8, symSize: 0x44 }
  - { offsetInCU: 0xFA8F, offset: 0xFA8F, size: 0x8, addend: 0x0, symName: __ZN4vec3C1Ev, symObjAddr: 0x1CC4, symBinAddr: 0x1000028EC, symSize: 0x2C }
  - { offsetInCU: 0xFAB9, offset: 0xFAB9, size: 0x8, addend: 0x0, symName: __ZN4vec3C2Ev, symObjAddr: 0x1CF0, symBinAddr: 0x100002918, symSize: 0x38 }
  - { offsetInCU: 0xFAE3, offset: 0xFAE3, size: 0x8, addend: 0x0, symName: __ZNKSt3__16vectorINS_10shared_ptrI8hittableEENS_9allocatorIS3_EEE11__make_iterB8ue170006EPKS3_, symObjAddr: 0x1D28, symBinAddr: 0x100002950, symSize: 0x30 }
  - { offsetInCU: 0xFB18, offset: 0xFB18, size: 0x8, addend: 0x0, symName: __ZNSt3__111__wrap_iterIPKNS_10shared_ptrI8hittableEEEC1B8ue170006ES5_, symObjAddr: 0x1D58, symBinAddr: 0x100002980, symSize: 0x34 }
  - { offsetInCU: 0xFB50, offset: 0xFB50, size: 0x8, addend: 0x0, symName: __ZNSt3__111__wrap_iterIPKNS_10shared_ptrI8hittableEEEC2B8ue170006ES5_, symObjAddr: 0x1D8C, symBinAddr: 0x1000029B4, symSize: 0x20 }
  - { offsetInCU: 0xFB88, offset: 0xFB88, size: 0x8, addend: 0x0, symName: __ZNKSt3__111__wrap_iterIPKNS_10shared_ptrI8hittableEEE4baseB8ue170006Ev, symObjAddr: 0x1DF4, symBinAddr: 0x100002A1C, symSize: 0x18 }
  - { offsetInCU: 0xFBAE, offset: 0xFBAE, size: 0x8, addend: 0x0, symName: __ZNSt3__110shared_ptrI8materialEaSB8ue170006ERKS2_, symObjAddr: 0x1E0C, symBinAddr: 0x100002A34, symSize: 0x50 }
  - { offsetInCU: 0xFBE3, offset: 0xFBE3, size: 0x8, addend: 0x0, symName: __ZNSt3__110shared_ptrI8materialEC1B8ue170006ERKS2_, symObjAddr: 0x1E5C, symBinAddr: 0x100002A84, symSize: 0x34 }
  - { offsetInCU: 0xFC1C, offset: 0xFC1C, size: 0x8, addend: 0x0, symName: __ZNSt3__110shared_ptrI8materialE4swapB8ue170006ERS2_, symObjAddr: 0x1E90, symBinAddr: 0x100002AB8, symSize: 0x44 }
  - { offsetInCU: 0xFC51, offset: 0xFC51, size: 0x8, addend: 0x0, symName: __ZNSt3__110shared_ptrI8materialEC2B8ue170006ERKS2_, symObjAddr: 0x1ED4, symBinAddr: 0x100002AFC, symSize: 0x70 }
  - { offsetInCU: 0xFC8A, offset: 0xFC8A, size: 0x8, addend: 0x0, symName: __ZNSt3__119__shared_weak_count12__add_sharedB8ue170006Ev, symObjAddr: 0x1F44, symBinAddr: 0x100002B6C, symSize: 0x24 }
  - { offsetInCU: 0xFCB0, offset: 0xFCB0, size: 0x8, addend: 0x0, symName: __ZNSt3__114__shared_count12__add_sharedB8ue170006Ev, symObjAddr: 0x1F68, symBinAddr: 0x100002B90, symSize: 0x28 }
  - { offsetInCU: 0xFCD6, offset: 0xFCD6, size: 0x8, addend: 0x0, symName: __ZN10hit_recordD2Ev, symObjAddr: 0x2038, symBinAddr: 0x100002C60, symSize: 0x30 }
  - { offsetInCU: 0xFD02, offset: 0xFD02, size: 0x8, addend: 0x0, symName: __ZN6cameraC2Ev, symObjAddr: 0x2068, symBinAddr: 0x100002C90, symSize: 0x118 }
  - { offsetInCU: 0xFD2E, offset: 0xFD2E, size: 0x8, addend: 0x0, symName: __ZN4vec3C2Eddd, symObjAddr: 0x2180, symBinAddr: 0x100002DA8, symSize: 0x38 }
  - { offsetInCU: 0xFD82, offset: 0xFD82, size: 0x8, addend: 0x0, symName: __ZNSt3__16vectorINS_10shared_ptrI8hittableEENS_9allocatorIS3_EEE9push_backB8ue170006ERKS3_, symObjAddr: 0x21B8, symBinAddr: 0x100002DE0, symSize: 0x6C }
  - { offsetInCU: 0xFDB9, offset: 0xFDB9, size: 0x8, addend: 0x0, symName: __ZNSt3__16vectorINS_10shared_ptrI8hittableEENS_9allocatorIS3_EEE9__end_capB8ue170006Ev, symObjAddr: 0x2224, symBinAddr: 0x100002E4C, symSize: 0x28 }
  - { offsetInCU: 0xFDDF, offset: 0xFDDF, size: 0x8, addend: 0x0, symName: __ZNSt3__16vectorINS_10shared_ptrI8hittableEENS_9allocatorIS3_EEE22__construct_one_at_endB8ue170006IJRKS3_EEEvDpOT_, symObjAddr: 0x224C, symBinAddr: 0x100002E74, symSize: 0x90 }
  - { offsetInCU: 0xFE2E, offset: 0xFE2E, size: 0x8, addend: 0x0, symName: __ZNSt3__16vectorINS_10shared_ptrI8hittableEENS_9allocatorIS3_EEE21__push_back_slow_pathIRKS3_EEvOT_, symObjAddr: 0x22DC, symBinAddr: 0x100002F04, symSize: 0xD8 }
  - { offsetInCU: 0xFE8C, offset: 0xFE8C, size: 0x8, addend: 0x0, symName: __ZNSt3__117__compressed_pairIPNS_10shared_ptrI8hittableEENS_9allocatorIS3_EEE5firstB8ue170006Ev, symObjAddr: 0x23B4, symBinAddr: 0x100002FDC, symSize: 0x24 }
  - { offsetInCU: 0xFEB2, offset: 0xFEB2, size: 0x8, addend: 0x0, symName: __ZNSt3__122__compressed_pair_elemIPNS_10shared_ptrI8hittableEELi0ELb0EE5__getB8ue170006Ev, symObjAddr: 0x23D8, symBinAddr: 0x100003000, symSize: 0x14 }
  - { offsetInCU: 0xFEF1, offset: 0xFEF1, size: 0x8, addend: 0x0, symName: __ZNSt3__16vectorINS_10shared_ptrI8hittableEENS_9allocatorIS3_EEE21_ConstructTransactionC1B8ue170006ERS6_m, symObjAddr: 0x23EC, symBinAddr: 0x100003014, symSize: 0x3C }
  - { offsetInCU: 0xFF39, offset: 0xFF39, size: 0x8, addend: 0x0, symName: __ZNSt3__116allocator_traitsINS_9allocatorINS_10shared_ptrI8hittableEEEEE9constructB8ue170006IS4_JRKS4_EvEEvRS5_PT_DpOT0_, symObjAddr: 0x2428, symBinAddr: 0x100003050, symSize: 0x34 }
  - { offsetInCU: 0xFF90, offset: 0xFF90, size: 0x8, addend: 0x0, symName: __ZNSt3__16vectorINS_10shared_ptrI8hittableEENS_9allocatorIS3_EEE7__allocB8ue170006Ev, symObjAddr: 0x245C, symBinAddr: 0x100003084, symSize: 0x28 }
  - { offsetInCU: 0xFFB6, offset: 0xFFB6, size: 0x8, addend: 0x0, symName: __ZNSt3__16vectorINS_10shared_ptrI8hittableEENS_9allocatorIS3_EEE21_ConstructTransactionD1B8ue170006Ev, symObjAddr: 0x2498, symBinAddr: 0x1000030C0, symSize: 0x2C }
  - { offsetInCU: 0xFFE0, offset: 0xFFE0, size: 0x8, addend: 0x0, symName: __ZNSt3__16vectorINS_10shared_ptrI8hittableEENS_9allocatorIS3_EEE21_ConstructTransactionC2B8ue170006ERS6_m, symObjAddr: 0x24C4, symBinAddr: 0x1000030EC, symSize: 0x44 }
  - { offsetInCU: 0x10028, offset: 0x10028, size: 0x8, addend: 0x0, symName: __ZNSt3__19allocatorINS_10shared_ptrI8hittableEEE9constructB8ue170006IS3_JRKS3_EEEvPT_DpOT0_, symObjAddr: 0x2508, symBinAddr: 0x100003130, symSize: 0x30 }
  - { offsetInCU: 0x1007E, offset: 0x1007E, size: 0x8, addend: 0x0, symName: __ZNSt3__110shared_ptrI8hittableEC1B8ue170006ERKS2_, symObjAddr: 0x2538, symBinAddr: 0x100003160, symSize: 0x34 }
  - { offsetInCU: 0x100B7, offset: 0x100B7, size: 0x8, addend: 0x0, symName: __ZNSt3__110shared_ptrI8hittableEC2B8ue170006ERKS2_, symObjAddr: 0x256C, symBinAddr: 0x100003194, symSize: 0x70 }
  - { offsetInCU: 0x100F0, offset: 0x100F0, size: 0x8, addend: 0x0, symName: __ZNSt3__117__compressed_pairIPNS_10shared_ptrI8hittableEENS_9allocatorIS3_EEE6secondB8ue170006Ev, symObjAddr: 0x25DC, symBinAddr: 0x100003204, symSize: 0x24 }
  - { offsetInCU: 0x10116, offset: 0x10116, size: 0x8, addend: 0x0, symName: __ZNSt3__122__compressed_pair_elemINS_9allocatorINS_10shared_ptrI8hittableEEEELi1ELb1EE5__getB8ue170006Ev, symObjAddr: 0x2600, symBinAddr: 0x100003228, symSize: 0x14 }
  - { offsetInCU: 0x1013C, offset: 0x1013C, size: 0x8, addend: 0x0, symName: __ZNSt3__16vectorINS_10shared_ptrI8hittableEENS_9allocatorIS3_EEE21_ConstructTransactionD2B8ue170006Ev, symObjAddr: 0x2614, symBinAddr: 0x10000323C, symSize: 0x20 }
  - { offsetInCU: 0x10166, offset: 0x10166, size: 0x8, addend: 0x0, symName: __ZNKSt3__16vectorINS_10shared_ptrI8hittableEENS_9allocatorIS3_EEE11__recommendB8ue170006Em, symObjAddr: 0x2634, symBinAddr: 0x10000325C, symSize: 0xB4 }
  - { offsetInCU: 0x101BB, offset: 0x101BB, size: 0x8, addend: 0x0, symName: __ZNKSt3__16vectorINS_10shared_ptrI8hittableEENS_9allocatorIS3_EEE4sizeB8ue170006Ev, symObjAddr: 0x26E8, symBinAddr: 0x100003310, symSize: 0x28 }
  - { offsetInCU: 0x101E1, offset: 0x101E1, size: 0x8, addend: 0x0, symName: __ZNSt3__114__split_bufferINS_10shared_ptrI8hittableEERNS_9allocatorIS3_EEEC1EmmS6_, symObjAddr: 0x2710, symBinAddr: 0x100003338, symSize: 0x44 }
  - { offsetInCU: 0x10237, offset: 0x10237, size: 0x8, addend: 0x0, symName: __ZNSt3__114__split_bufferINS_10shared_ptrI8hittableEERNS_9allocatorIS3_EEED1Ev, symObjAddr: 0x2864, symBinAddr: 0x10000348C, symSize: 0x2C }
  - { offsetInCU: 0x10263, offset: 0x10263, size: 0x8, addend: 0x0, symName: __ZNKSt3__16vectorINS_10shared_ptrI8hittableEENS_9allocatorIS3_EEE8max_sizeEv, symObjAddr: 0x2890, symBinAddr: 0x1000034B8, symSize: 0x60 }
  - { offsetInCU: 0x1028B, offset: 0x1028B, size: 0x8, addend: 0x0, symName: __ZNKSt3__16vectorINS_10shared_ptrI8hittableEENS_9allocatorIS3_EEE20__throw_length_errorB8ue170006Ev, symObjAddr: 0x28F0, symBinAddr: 0x100003518, symSize: 0x1C }
  - { offsetInCU: 0x102B1, offset: 0x102B1, size: 0x8, addend: 0x0, symName: __ZNKSt3__16vectorINS_10shared_ptrI8hittableEENS_9allocatorIS3_EEE8capacityB8ue170006Ev, symObjAddr: 0x290C, symBinAddr: 0x100003534, symSize: 0x40 }
  - { offsetInCU: 0x102E1, offset: 0x102E1, size: 0x8, addend: 0x0, symName: __ZNSt3__116allocator_traitsINS_9allocatorINS_10shared_ptrI8hittableEEEEE8max_sizeB8ue170006IS5_vEEmRKS5_, symObjAddr: 0x29A4, symBinAddr: 0x1000035CC, symSize: 0x24 }
  - { offsetInCU: 0x1030F, offset: 0x1030F, size: 0x8, addend: 0x0, symName: __ZNKSt3__16vectorINS_10shared_ptrI8hittableEENS_9allocatorIS3_EEE7__allocB8ue170006Ev, symObjAddr: 0x29C8, symBinAddr: 0x1000035F0, symSize: 0x28 }
  - { offsetInCU: 0x10335, offset: 0x10335, size: 0x8, addend: 0x0, symName: __ZNSt3__114numeric_limitsIlE3maxB8ue170006Ev, symObjAddr: 0x29F0, symBinAddr: 0x100003618, symSize: 0x14 }
  - { offsetInCU: 0x1035D, offset: 0x1035D, size: 0x8, addend: 0x0, symName: __ZNKSt3__16__lessIvvEclB8ue170006ImmEEbRKT_RKT0_, symObjAddr: 0x2A58, symBinAddr: 0x100003680, symSize: 0x34 }
  - { offsetInCU: 0x103B1, offset: 0x103B1, size: 0x8, addend: 0x0, symName: __ZNKSt3__19allocatorINS_10shared_ptrI8hittableEEE8max_sizeB8ue170006Ev, symObjAddr: 0x2A8C, symBinAddr: 0x1000036B4, symSize: 0x14 }
  - { offsetInCU: 0x103D7, offset: 0x103D7, size: 0x8, addend: 0x0, symName: __ZNKSt3__117__compressed_pairIPNS_10shared_ptrI8hittableEENS_9allocatorIS3_EEE6secondB8ue170006Ev, symObjAddr: 0x2AA0, symBinAddr: 0x1000036C8, symSize: 0x24 }
  - { offsetInCU: 0x103FD, offset: 0x103FD, size: 0x8, addend: 0x0, symName: __ZNKSt3__122__compressed_pair_elemINS_9allocatorINS_10shared_ptrI8hittableEEEELi1ELb1EE5__getB8ue170006Ev, symObjAddr: 0x2AC4, symBinAddr: 0x1000036EC, symSize: 0x14 }
  - { offsetInCU: 0x10423, offset: 0x10423, size: 0x8, addend: 0x0, symName: __ZNSt3__123__libcpp_numeric_limitsIlLb1EE3maxB8ue170006Ev, symObjAddr: 0x2AD8, symBinAddr: 0x100003700, symSize: 0x8 }
  - { offsetInCU: 0x10437, offset: 0x10437, size: 0x8, addend: 0x0, symName: __ZNSt12length_errorC1B8ue170006EPKc, symObjAddr: 0x2B44, symBinAddr: 0x10000376C, symSize: 0x34 }
  - { offsetInCU: 0x1046F, offset: 0x1046F, size: 0x8, addend: 0x0, symName: __ZNSt12length_errorC2B8ue170006EPKc, symObjAddr: 0x2B78, symBinAddr: 0x1000037A0, symSize: 0x4C }
  - { offsetInCU: 0x104A7, offset: 0x104A7, size: 0x8, addend: 0x0, symName: __ZNKSt3__16vectorINS_10shared_ptrI8hittableEENS_9allocatorIS3_EEE9__end_capB8ue170006Ev, symObjAddr: 0x2BC4, symBinAddr: 0x1000037EC, symSize: 0x28 }
  - { offsetInCU: 0x104CD, offset: 0x104CD, size: 0x8, addend: 0x0, symName: __ZNKSt3__117__compressed_pairIPNS_10shared_ptrI8hittableEENS_9allocatorIS3_EEE5firstB8ue170006Ev, symObjAddr: 0x2BEC, symBinAddr: 0x100003814, symSize: 0x24 }
  - { offsetInCU: 0x104F3, offset: 0x104F3, size: 0x8, addend: 0x0, symName: __ZNKSt3__122__compressed_pair_elemIPNS_10shared_ptrI8hittableEELi0ELb0EE5__getB8ue170006Ev, symObjAddr: 0x2C10, symBinAddr: 0x100003838, symSize: 0x14 }
  - { offsetInCU: 0x10519, offset: 0x10519, size: 0x8, addend: 0x0, symName: __ZNSt3__114__split_bufferINS_10shared_ptrI8hittableEERNS_9allocatorIS3_EEEC2EmmS6_, symObjAddr: 0x2C78, symBinAddr: 0x1000038A0, symSize: 0xD4 }
  - { offsetInCU: 0x1058D, offset: 0x1058D, size: 0x8, addend: 0x0, symName: __ZNSt3__117__compressed_pairIPNS_10shared_ptrI8hittableEERNS_9allocatorIS3_EEEC1B8ue170006IDnS7_EEOT_OT0_, symObjAddr: 0x2D4C, symBinAddr: 0x100003974, symSize: 0x3C }
  - { offsetInCU: 0x105E5, offset: 0x105E5, size: 0x8, addend: 0x0, symName: __ZNSt3__114__split_bufferINS_10shared_ptrI8hittableEERNS_9allocatorIS3_EEE7__allocB8ue170006Ev, symObjAddr: 0x2DC8, symBinAddr: 0x1000039F0, symSize: 0x28 }
  - { offsetInCU: 0x1060B, offset: 0x1060B, size: 0x8, addend: 0x0, symName: __ZNSt3__114__split_bufferINS_10shared_ptrI8hittableEERNS_9allocatorIS3_EEE9__end_capB8ue170006Ev, symObjAddr: 0x2DF0, symBinAddr: 0x100003A18, symSize: 0x28 }
  - { offsetInCU: 0x10631, offset: 0x10631, size: 0x8, addend: 0x0, symName: __ZNSt3__117__compressed_pairIPNS_10shared_ptrI8hittableEERNS_9allocatorIS3_EEEC2B8ue170006IDnS7_EEOT_OT0_, symObjAddr: 0x2E18, symBinAddr: 0x100003A40, symSize: 0x48 }
  - { offsetInCU: 0x10689, offset: 0x10689, size: 0x8, addend: 0x0, symName: __ZNSt3__122__compressed_pair_elemIRNS_9allocatorINS_10shared_ptrI8hittableEEEELi1ELb0EEC2B8ue170006IS6_vEEOT_, symObjAddr: 0x2E60, symBinAddr: 0x100003A88, symSize: 0x20 }
  - { offsetInCU: 0x106CB, offset: 0x106CB, size: 0x8, addend: 0x0, symName: __ZNSt3__19allocatorINS_10shared_ptrI8hittableEEE8allocateB8ue170006Em, symObjAddr: 0x2E80, symBinAddr: 0x100003AA8, symSize: 0x58 }
  - { offsetInCU: 0x106FF, offset: 0x106FF, size: 0x8, addend: 0x0, symName: __ZNSt3__117__compressed_pairIPNS_10shared_ptrI8hittableEERNS_9allocatorIS3_EEE6secondB8ue170006Ev, symObjAddr: 0x2F58, symBinAddr: 0x100003B80, symSize: 0x28 }
  - { offsetInCU: 0x10725, offset: 0x10725, size: 0x8, addend: 0x0, symName: __ZNSt3__122__compressed_pair_elemIRNS_9allocatorINS_10shared_ptrI8hittableEEEELi1ELb0EE5__getB8ue170006Ev, symObjAddr: 0x2F80, symBinAddr: 0x100003BA8, symSize: 0x18 }
  - { offsetInCU: 0x1074B, offset: 0x1074B, size: 0x8, addend: 0x0, symName: __ZNSt3__117__compressed_pairIPNS_10shared_ptrI8hittableEERNS_9allocatorIS3_EEE5firstB8ue170006Ev, symObjAddr: 0x2F98, symBinAddr: 0x100003BC0, symSize: 0x24 }
  - { offsetInCU: 0x10771, offset: 0x10771, size: 0x8, addend: 0x0, symName: __ZNKSt3__16vectorINS_10shared_ptrI8hittableEENS_9allocatorIS3_EEE17__annotate_deleteB8ue170006Ev, symObjAddr: 0x2FBC, symBinAddr: 0x100003BE4, symSize: 0xB8 }
  - { offsetInCU: 0x10797, offset: 0x10797, size: 0x8, addend: 0x0, symName: __ZNSt3__116reverse_iteratorIPNS_10shared_ptrI8hittableEEEC1B8ue170006ES4_, symObjAddr: 0x31A0, symBinAddr: 0x100003DC8, symSize: 0x34 }
  - { offsetInCU: 0x107CF, offset: 0x107CF, size: 0x8, addend: 0x0, symName: __ZNKSt3__116reverse_iteratorIPNS_10shared_ptrI8hittableEEE4baseB8ue170006Ev, symObjAddr: 0x31D4, symBinAddr: 0x100003DFC, symSize: 0x18 }
  - { offsetInCU: 0x107F5, offset: 0x107F5, size: 0x8, addend: 0x0, symName: __ZNKSt3__16vectorINS_10shared_ptrI8hittableEENS_9allocatorIS3_EEE14__annotate_newB8ue170006Em, symObjAddr: 0x3228, symBinAddr: 0x100003E50, symSize: 0xAC }
  - { offsetInCU: 0x1082A, offset: 0x1082A, size: 0x8, addend: 0x0, symName: __ZNKSt3__16vectorINS_10shared_ptrI8hittableEENS_9allocatorIS3_EEE31__annotate_contiguous_containerB8ue170006EPKvS8_S8_S8_, symObjAddr: 0x32D4, symBinAddr: 0x100003EFC, symSize: 0x20 }
  - { offsetInCU: 0x10880, offset: 0x10880, size: 0x8, addend: 0x0, symName: __ZNKSt3__16vectorINS_10shared_ptrI8hittableEENS_9allocatorIS3_EEE4dataB8ue170006Ev, symObjAddr: 0x32F4, symBinAddr: 0x100003F1C, symSize: 0x28 }
  - { offsetInCU: 0x108A6, offset: 0x108A6, size: 0x8, addend: 0x0, symName: __ZNSt3__129_AllocatorDestroyRangeReverseINS_9allocatorINS_10shared_ptrI8hittableEEEENS_16reverse_iteratorIPS4_EEEC1B8ue170006ERS5_RS8_SB_, symObjAddr: 0x3368, symBinAddr: 0x100003F90, symSize: 0x44 }
  - { offsetInCU: 0x108FD, offset: 0x108FD, size: 0x8, addend: 0x0, symName: __ZNSt3__116allocator_traitsINS_9allocatorINS_10shared_ptrI8hittableEEEEE9constructB8ue170006IS4_JS4_EvEEvRS5_PT_DpOT0_, symObjAddr: 0x33F4, symBinAddr: 0x10000401C, symSize: 0x34 }
  - { offsetInCU: 0x10954, offset: 0x10954, size: 0x8, addend: 0x0, symName: __ZNKSt3__116reverse_iteratorIPNS_10shared_ptrI8hittableEEEdeB8ue170006Ev, symObjAddr: 0x344C, symBinAddr: 0x100004074, symSize: 0x28 }
  - { offsetInCU: 0x10988, offset: 0x10988, size: 0x8, addend: 0x0, symName: __ZNSt3__116reverse_iteratorIPNS_10shared_ptrI8hittableEEEppB8ue170006Ev, symObjAddr: 0x3474, symBinAddr: 0x10000409C, symSize: 0x20 }
  - { offsetInCU: 0x109AE, offset: 0x109AE, size: 0x8, addend: 0x0, symName: __ZNSt3__128__exception_guard_exceptionsINS_29_AllocatorDestroyRangeReverseINS_9allocatorINS_10shared_ptrI8hittableEEEENS_16reverse_iteratorIPS5_EEEEE10__completeB8ue170006Ev, symObjAddr: 0x3494, symBinAddr: 0x1000040BC, symSize: 0x1C }
  - { offsetInCU: 0x109D4, offset: 0x109D4, size: 0x8, addend: 0x0, symName: __ZNSt3__128__exception_guard_exceptionsINS_29_AllocatorDestroyRangeReverseINS_9allocatorINS_10shared_ptrI8hittableEEEENS_16reverse_iteratorIPS5_EEEEED1B8ue170006Ev, symObjAddr: 0x34B0, symBinAddr: 0x1000040D8, symSize: 0x2C }
  - { offsetInCU: 0x109FE, offset: 0x109FE, size: 0x8, addend: 0x0, symName: __ZNSt3__128__exception_guard_exceptionsINS_29_AllocatorDestroyRangeReverseINS_9allocatorINS_10shared_ptrI8hittableEEEENS_16reverse_iteratorIPS5_EEEEEC1B8ue170006ESA_, symObjAddr: 0x34DC, symBinAddr: 0x100004104, symSize: 0x34 }
  - { offsetInCU: 0x10A37, offset: 0x10A37, size: 0x8, addend: 0x0, symName: __ZNSt3__128__exception_guard_exceptionsINS_29_AllocatorDestroyRangeReverseINS_9allocatorINS_10shared_ptrI8hittableEEEENS_16reverse_iteratorIPS5_EEEEEC2B8ue170006ESA_, symObjAddr: 0x3510, symBinAddr: 0x100004138, symSize: 0x30 }
  - { offsetInCU: 0x10A70, offset: 0x10A70, size: 0x8, addend: 0x0, symName: __ZNSt3__129_AllocatorDestroyRangeReverseINS_9allocatorINS_10shared_ptrI8hittableEEEENS_16reverse_iteratorIPS4_EEEC2B8ue170006ERS5_RS8_SB_, symObjAddr: 0x3540, symBinAddr: 0x100004168, symSize: 0x38 }
  - { offsetInCU: 0x10AC7, offset: 0x10AC7, size: 0x8, addend: 0x0, symName: __ZNSt3__19allocatorINS_10shared_ptrI8hittableEEE9constructB8ue170006IS3_JS3_EEEvPT_DpOT0_, symObjAddr: 0x3578, symBinAddr: 0x1000041A0, symSize: 0x30 }
  - { offsetInCU: 0x10B1D, offset: 0x10B1D, size: 0x8, addend: 0x0, symName: __ZNSt3__110shared_ptrI8hittableEC1B8ue170006EOS2_, symObjAddr: 0x35A8, symBinAddr: 0x1000041D0, symSize: 0x34 }
  - { offsetInCU: 0x10B56, offset: 0x10B56, size: 0x8, addend: 0x0, symName: __ZNSt3__110shared_ptrI8hittableEC2B8ue170006EOS2_, symObjAddr: 0x35DC, symBinAddr: 0x100004204, symSize: 0x40 }
  - { offsetInCU: 0x10B94, offset: 0x10B94, size: 0x8, addend: 0x0, symName: __ZNSt3__119__to_address_helperINS_16reverse_iteratorIPNS_10shared_ptrI8hittableEEEEvE6__callB8ue170006ERKS6_, symObjAddr: 0x361C, symBinAddr: 0x100004244, symSize: 0x38 }
  - { offsetInCU: 0x10BB7, offset: 0x10BB7, size: 0x8, addend: 0x0, symName: __ZNKSt3__116reverse_iteratorIPNS_10shared_ptrI8hittableEEEptB8ue170006Ev, symObjAddr: 0x3654, symBinAddr: 0x10000427C, symSize: 0x24 }
  - { offsetInCU: 0x10BDD, offset: 0x10BDD, size: 0x8, addend: 0x0, symName: __ZNSt3__128__exception_guard_exceptionsINS_29_AllocatorDestroyRangeReverseINS_9allocatorINS_10shared_ptrI8hittableEEEENS_16reverse_iteratorIPS5_EEEEED2B8ue170006Ev, symObjAddr: 0x3678, symBinAddr: 0x1000042A0, symSize: 0x50 }
  - { offsetInCU: 0x10C07, offset: 0x10C07, size: 0x8, addend: 0x0, symName: __ZNKSt3__129_AllocatorDestroyRangeReverseINS_9allocatorINS_10shared_ptrI8hittableEEEENS_16reverse_iteratorIPS4_EEEclB8ue170006Ev, symObjAddr: 0x36C8, symBinAddr: 0x1000042F0, symSize: 0xB4 }
  - { offsetInCU: 0x10C2E, offset: 0x10C2E, size: 0x8, addend: 0x0, symName: __ZNSt3__116reverse_iteratorINS0_IPNS_10shared_ptrI8hittableEEEEEC1B8ue170006ES5_, symObjAddr: 0x37EC, symBinAddr: 0x100004414, symSize: 0x3C }
  - { offsetInCU: 0x10C66, offset: 0x10C66, size: 0x8, addend: 0x0, symName: __ZNSt3__116allocator_traitsINS_9allocatorINS_10shared_ptrI8hittableEEEEE7destroyB8ue170006IS4_vEEvRS5_PT_, symObjAddr: 0x3888, symBinAddr: 0x1000044B0, symSize: 0x2C }
  - { offsetInCU: 0x10CA3, offset: 0x10CA3, size: 0x8, addend: 0x0, symName: __ZNSt3__116reverse_iteratorINS0_IPNS_10shared_ptrI8hittableEEEEEppB8ue170006Ev, symObjAddr: 0x38D8, symBinAddr: 0x100004500, symSize: 0x30 }
  - { offsetInCU: 0x10CC9, offset: 0x10CC9, size: 0x8, addend: 0x0, symName: __ZNKSt3__116reverse_iteratorINS0_IPNS_10shared_ptrI8hittableEEEEE4baseB8ue170006Ev, symObjAddr: 0x3908, symBinAddr: 0x100004530, symSize: 0x24 }
  - { offsetInCU: 0x10CEF, offset: 0x10CEF, size: 0x8, addend: 0x0, symName: __ZNSt3__19allocatorINS_10shared_ptrI8hittableEEE7destroyB8ue170006EPS3_, symObjAddr: 0x392C, symBinAddr: 0x100004554, symSize: 0x28 }
  - { offsetInCU: 0x10D28, offset: 0x10D28, size: 0x8, addend: 0x0, symName: __ZNSt3__119__to_address_helperINS_16reverse_iteratorINS1_IPNS_10shared_ptrI8hittableEEEEEEvE6__callB8ue170006ERKS7_, symObjAddr: 0x3954, symBinAddr: 0x10000457C, symSize: 0x38 }
  - { offsetInCU: 0x10D4B, offset: 0x10D4B, size: 0x8, addend: 0x0, symName: __ZNKSt3__116reverse_iteratorINS0_IPNS_10shared_ptrI8hittableEEEEEptB8ue170006Ev, symObjAddr: 0x398C, symBinAddr: 0x1000045B4, symSize: 0x24 }
  - { offsetInCU: 0x10D71, offset: 0x10D71, size: 0x8, addend: 0x0, symName: __ZNKSt3__116reverse_iteratorINS0_IPNS_10shared_ptrI8hittableEEEEEdeB8ue170006Ev, symObjAddr: 0x39B0, symBinAddr: 0x1000045D8, symSize: 0x34 }
  - { offsetInCU: 0x10DA5, offset: 0x10DA5, size: 0x8, addend: 0x0, symName: __ZNSt3__116reverse_iteratorIPNS_10shared_ptrI8hittableEEEmmB8ue170006Ev, symObjAddr: 0x39E4, symBinAddr: 0x10000460C, symSize: 0x20 }
  - { offsetInCU: 0x10DCB, offset: 0x10DCB, size: 0x8, addend: 0x0, symName: __ZNSt3__116reverse_iteratorINS0_IPNS_10shared_ptrI8hittableEEEEEC2B8ue170006ES5_, symObjAddr: 0x3A04, symBinAddr: 0x10000462C, symSize: 0x2C }
  - { offsetInCU: 0x10E03, offset: 0x10E03, size: 0x8, addend: 0x0, symName: __ZNSt3__116reverse_iteratorIPNS_10shared_ptrI8hittableEEEC2B8ue170006ES4_, symObjAddr: 0x3A30, symBinAddr: 0x100004658, symSize: 0x28 }
  - { offsetInCU: 0x10E3B, offset: 0x10E3B, size: 0x8, addend: 0x0, symName: __ZNSt3__114__split_bufferINS_10shared_ptrI8hittableEERNS_9allocatorIS3_EEED2Ev, symObjAddr: 0x3A58, symBinAddr: 0x100004680, symSize: 0x8C }
  - { offsetInCU: 0x10E67, offset: 0x10E67, size: 0x8, addend: 0x0, symName: __ZNSt3__114__split_bufferINS_10shared_ptrI8hittableEERNS_9allocatorIS3_EEE5clearB8ue170006Ev, symObjAddr: 0x3AE4, symBinAddr: 0x10000470C, symSize: 0x28 }
  - { offsetInCU: 0x10E8D, offset: 0x10E8D, size: 0x8, addend: 0x0, symName: __ZNSt3__116allocator_traitsINS_9allocatorINS_10shared_ptrI8hittableEEEEE10deallocateB8ue170006ERS5_PS4_m, symObjAddr: 0x3B0C, symBinAddr: 0x100004734, symSize: 0x34 }
  - { offsetInCU: 0x10ECF, offset: 0x10ECF, size: 0x8, addend: 0x0, symName: __ZNKSt3__114__split_bufferINS_10shared_ptrI8hittableEERNS_9allocatorIS3_EEE8capacityB8ue170006Ev, symObjAddr: 0x3B40, symBinAddr: 0x100004768, symSize: 0x40 }
  - { offsetInCU: 0x10EF5, offset: 0x10EF5, size: 0x8, addend: 0x0, symName: __ZNSt3__114__split_bufferINS_10shared_ptrI8hittableEERNS_9allocatorIS3_EEE17__destruct_at_endB8ue170006EPS3_, symObjAddr: 0x3B80, symBinAddr: 0x1000047A8, symSize: 0x2C }
  - { offsetInCU: 0x10F29, offset: 0x10F29, size: 0x8, addend: 0x0, symName: __ZNSt3__114__split_bufferINS_10shared_ptrI8hittableEERNS_9allocatorIS3_EEE17__destruct_at_endB8ue170006EPS3_NS_17integral_constantIbLb0EEE, symObjAddr: 0x3BAC, symBinAddr: 0x1000047D4, symSize: 0x80 }
  - { offsetInCU: 0x10F6A, offset: 0x10F6A, size: 0x8, addend: 0x0, symName: __ZNSt3__19allocatorINS_10shared_ptrI8hittableEEE10deallocateB8ue170006EPS3_m, symObjAddr: 0x3C2C, symBinAddr: 0x100004854, symSize: 0x40 }
  - { offsetInCU: 0x10FAC, offset: 0x10FAC, size: 0x8, addend: 0x0, symName: __ZNKSt3__114__split_bufferINS_10shared_ptrI8hittableEERNS_9allocatorIS3_EEE9__end_capB8ue170006Ev, symObjAddr: 0x3CE8, symBinAddr: 0x100004910, symSize: 0x28 }
  - { offsetInCU: 0x10FD2, offset: 0x10FD2, size: 0x8, addend: 0x0, symName: __ZNKSt3__117__compressed_pairIPNS_10shared_ptrI8hittableEERNS_9allocatorIS3_EEE5firstB8ue170006Ev, symObjAddr: 0x3D10, symBinAddr: 0x100004938, symSize: 0x24 }
  - { offsetInCU: 0x10FF8, offset: 0x10FF8, size: 0x8, addend: 0x0, symName: __ZNK4vec318get_length_squaredEv, symObjAddr: 0x3D34, symBinAddr: 0x10000495C, symSize: 0x38 }
  - { offsetInCU: 0x1101E, offset: 0x1101E, size: 0x8, addend: 0x0, symName: __ZNSt3__110shared_ptrI8materialEC2B8ue170006Ev, symObjAddr: 0x3D6C, symBinAddr: 0x100004994, symSize: 0x1C }
  - { offsetInCU: 0x11048, offset: 0x11048, size: 0x8, addend: 0x0, symName: __ZN6camera10initializeEv, symObjAddr: 0x3D88, symBinAddr: 0x1000049B0, symSize: 0x440 }
  - { offsetInCU: 0x110E2, offset: 0x110E2, size: 0x8, addend: 0x0, symName: __ZNSt3__113basic_ostreamIcNS_11char_traitsIcEEElsB8ue170006EPFRS3_S4_E, symObjAddr: 0x4210, symBinAddr: 0x100004E38, symSize: 0x2C }
  - { offsetInCU: 0x11116, offset: 0x11116, size: 0x8, addend: 0x0, symName: __ZNK6camera7get_rayEii, symObjAddr: 0x4264, symBinAddr: 0x100004E8C, symSize: 0x194 }
  - { offsetInCU: 0x11193, offset: 0x11193, size: 0x8, addend: 0x0, symName: __ZNK6camera9ray_colorERK3rayiRK8hittable, symObjAddr: 0x43F8, symBinAddr: 0x100005020, symSize: 0x348 }
  - { offsetInCU: 0x11235, offset: 0x11235, size: 0x8, addend: 0x0, symName: __ZN4vec3pLERKS_, symObjAddr: 0x4740, symBinAddr: 0x100005368, symSize: 0x54 }
  - { offsetInCU: 0x11268, offset: 0x11268, size: 0x8, addend: 0x0, symName: __ZmldRK4vec3, symObjAddr: 0x4794, symBinAddr: 0x1000053BC, symSize: 0x64 }
  - { offsetInCU: 0x112A2, offset: 0x112A2, size: 0x8, addend: 0x0, symName: __Z10deg_to_radd, symObjAddr: 0x47F8, symBinAddr: 0x100005420, symSize: 0x2C }
  - { offsetInCU: 0x112CE, offset: 0x112CE, size: 0x8, addend: 0x0, symName: __Z11unit_vectorRK4vec3, symObjAddr: 0x4824, symBinAddr: 0x10000544C, symSize: 0x4C }
  - { offsetInCU: 0x112FA, offset: 0x112FA, size: 0x8, addend: 0x0, symName: __Z13cross_productRK4vec3S1_, symObjAddr: 0x4870, symBinAddr: 0x100005498, symSize: 0xAC }
  - { offsetInCU: 0x11335, offset: 0x11335, size: 0x8, addend: 0x0, symName: __ZNK4vec3ngEv, symObjAddr: 0x491C, symBinAddr: 0x100005544, symSize: 0x4C }
  - { offsetInCU: 0x1135A, offset: 0x1135A, size: 0x8, addend: 0x0, symName: __ZdvRK4vec3d, symObjAddr: 0x4968, symBinAddr: 0x100005590, symSize: 0x4C }
  - { offsetInCU: 0x11394, offset: 0x11394, size: 0x8, addend: 0x0, symName: __ZplRK4vec3S1_, symObjAddr: 0x49B4, symBinAddr: 0x1000055DC, symSize: 0x70 }
  - { offsetInCU: 0x113CE, offset: 0x113CE, size: 0x8, addend: 0x0, symName: __ZmlRK4vec3d, symObjAddr: 0x4A24, symBinAddr: 0x10000564C, symSize: 0x44 }
  - { offsetInCU: 0x11409, offset: 0x11409, size: 0x8, addend: 0x0, symName: __ZNSt3__111char_traitsIcE6lengthB8ue170006EPKc, symObjAddr: 0x4C54, symBinAddr: 0x10000587C, symSize: 0x34 }
  - { offsetInCU: 0x1144A, offset: 0x1144A, size: 0x8, addend: 0x0, symName: __ZNKSt3__113basic_ostreamIcNS_11char_traitsIcEEE6sentrycvbB8ue170006Ev, symObjAddr: 0x4C88, symBinAddr: 0x1000058B0, symSize: 0x1C }
  - { offsetInCU: 0x11470, offset: 0x11470, size: 0x8, addend: 0x0, symName: __ZNSt3__119ostreambuf_iteratorIcNS_11char_traitsIcEEEC1B8ue170006ERNS_13basic_ostreamIcS2_EE, symObjAddr: 0x4EE4, symBinAddr: 0x100005B0C, symSize: 0x34 }
  - { offsetInCU: 0x114A8, offset: 0x114A8, size: 0x8, addend: 0x0, symName: __ZNKSt3__18ios_base5flagsB8ue170006Ev, symObjAddr: 0x4F18, symBinAddr: 0x100005B40, symSize: 0x18 }
  - { offsetInCU: 0x114D0, offset: 0x114D0, size: 0x8, addend: 0x0, symName: __ZNKSt3__19basic_iosIcNS_11char_traitsIcEEE4fillB8ue170006Ev, symObjAddr: 0x4F30, symBinAddr: 0x100005B58, symSize: 0x64 }
  - { offsetInCU: 0x114F8, offset: 0x114F8, size: 0x8, addend: 0x0, symName: __ZNKSt3__119ostreambuf_iteratorIcNS_11char_traitsIcEEE6failedB8ue170006Ev, symObjAddr: 0x4F94, symBinAddr: 0x100005BBC, symSize: 0x24 }
  - { offsetInCU: 0x1151E, offset: 0x1151E, size: 0x8, addend: 0x0, symName: __ZNSt3__19basic_iosIcNS_11char_traitsIcEEE8setstateB8ue170006Ej, symObjAddr: 0x4FB8, symBinAddr: 0x100005BE0, symSize: 0x2C }
  - { offsetInCU: 0x11553, offset: 0x11553, size: 0x8, addend: 0x0, symName: __ZNKSt3__18ios_base5widthB8ue170006Ev, symObjAddr: 0x4FE4, symBinAddr: 0x100005C0C, symSize: 0x18 }
  - { offsetInCU: 0x1157B, offset: 0x1157B, size: 0x8, addend: 0x0, symName: __ZNSt3__115basic_streambufIcNS_11char_traitsIcEEE5sputnB8ue170006EPKcl, symObjAddr: 0x4FFC, symBinAddr: 0x100005C24, symSize: 0x3C }
  - { offsetInCU: 0x115BD, offset: 0x115BD, size: 0x8, addend: 0x0, symName: __ZNSt3__112basic_stringIcNS_11char_traitsIcEENS_9allocatorIcEEEC1B8ue170006Emc, symObjAddr: 0x5038, symBinAddr: 0x100005C60, symSize: 0x3C }
  - { offsetInCU: 0x11605, offset: 0x11605, size: 0x8, addend: 0x0, symName: __ZNKSt3__112basic_stringIcNS_11char_traitsIcEENS_9allocatorIcEEE4dataB8ue170006Ev, symObjAddr: 0x5074, symBinAddr: 0x100005C9C, symSize: 0x28 }
  - { offsetInCU: 0x1162B, offset: 0x1162B, size: 0x8, addend: 0x0, symName: __ZNSt3__18ios_base5widthB8ue170006El, symObjAddr: 0x509C, symBinAddr: 0x100005CC4, symSize: 0x2C }
  - { offsetInCU: 0x11671, offset: 0x11671, size: 0x8, addend: 0x0, symName: __ZNSt3__112basic_stringIcNS_11char_traitsIcEENS_9allocatorIcEEEC2B8ue170006Emc, symObjAddr: 0x50C8, symBinAddr: 0x100005CF0, symSize: 0x4C }
  - { offsetInCU: 0x116B9, offset: 0x116B9, size: 0x8, addend: 0x0, symName: __ZNSt3__117__compressed_pairINS_12basic_stringIcNS_11char_traitsIcEENS_9allocatorIcEEE5__repES5_EC1B8ue170006INS_18__default_init_tagESA_EEOT_OT0_, symObjAddr: 0x5114, symBinAddr: 0x100005D3C, symSize: 0x3C }
  - { offsetInCU: 0x11711, offset: 0x11711, size: 0x8, addend: 0x0, symName: __ZNSt3__117__compressed_pairINS_12basic_stringIcNS_11char_traitsIcEENS_9allocatorIcEEE5__repES5_EC2B8ue170006INS_18__default_init_tagESA_EEOT_OT0_, symObjAddr: 0x5150, symBinAddr: 0x100005D78, symSize: 0x3C }
  - { offsetInCU: 0x11769, offset: 0x11769, size: 0x8, addend: 0x0, symName: __ZNSt3__122__compressed_pair_elemINS_12basic_stringIcNS_11char_traitsIcEENS_9allocatorIcEEE5__repELi0ELb0EEC2B8ue170006ENS_18__default_init_tagE, symObjAddr: 0x518C, symBinAddr: 0x100005DB4, symSize: 0x14 }
  - { offsetInCU: 0x1179E, offset: 0x1179E, size: 0x8, addend: 0x0, symName: __ZNSt3__122__compressed_pair_elemINS_9allocatorIcEELi1ELb1EEC2B8ue170006ENS_18__default_init_tagE, symObjAddr: 0x51A0, symBinAddr: 0x100005DC8, symSize: 0x2C }
  - { offsetInCU: 0x117D3, offset: 0x117D3, size: 0x8, addend: 0x0, symName: __ZNSt3__19allocatorIcEC2B8ue170006Ev, symObjAddr: 0x51CC, symBinAddr: 0x100005DF4, symSize: 0x2C }
  - { offsetInCU: 0x117FD, offset: 0x117FD, size: 0x8, addend: 0x0, symName: __ZNSt3__116__non_trivial_ifILb1ENS_9allocatorIcEEEC2B8ue170006Ev, symObjAddr: 0x51F8, symBinAddr: 0x100005E20, symSize: 0x14 }
  - { offsetInCU: 0x11827, offset: 0x11827, size: 0x8, addend: 0x0, symName: __ZNKSt3__112basic_stringIcNS_11char_traitsIcEENS_9allocatorIcEEE13__get_pointerB8ue170006Ev, symObjAddr: 0x5220, symBinAddr: 0x100005E48, symSize: 0x54 }
  - { offsetInCU: 0x1184D, offset: 0x1184D, size: 0x8, addend: 0x0, symName: __ZNKSt3__112basic_stringIcNS_11char_traitsIcEENS_9allocatorIcEEE9__is_longB8ue170006Ev, symObjAddr: 0x5274, symBinAddr: 0x100005E9C, symSize: 0x38 }
  - { offsetInCU: 0x11873, offset: 0x11873, size: 0x8, addend: 0x0, symName: __ZNKSt3__112basic_stringIcNS_11char_traitsIcEENS_9allocatorIcEEE18__get_long_pointerB8ue170006Ev, symObjAddr: 0x52AC, symBinAddr: 0x100005ED4, symSize: 0x28 }
  - { offsetInCU: 0x11899, offset: 0x11899, size: 0x8, addend: 0x0, symName: __ZNKSt3__112basic_stringIcNS_11char_traitsIcEENS_9allocatorIcEEE19__get_short_pointerB8ue170006Ev, symObjAddr: 0x52D4, symBinAddr: 0x100005EFC, symSize: 0x28 }
  - { offsetInCU: 0x118BF, offset: 0x118BF, size: 0x8, addend: 0x0, symName: __ZNKSt3__117__compressed_pairINS_12basic_stringIcNS_11char_traitsIcEENS_9allocatorIcEEE5__repES5_E5firstB8ue170006Ev, symObjAddr: 0x52FC, symBinAddr: 0x100005F24, symSize: 0x24 }
  - { offsetInCU: 0x118E5, offset: 0x118E5, size: 0x8, addend: 0x0, symName: __ZNKSt3__122__compressed_pair_elemINS_12basic_stringIcNS_11char_traitsIcEENS_9allocatorIcEEE5__repELi0ELb0EE5__getB8ue170006Ev, symObjAddr: 0x5320, symBinAddr: 0x100005F48, symSize: 0x14 }
  - { offsetInCU: 0x1190B, offset: 0x1190B, size: 0x8, addend: 0x0, symName: __ZNSt3__114pointer_traitsIPKcE10pointer_toB8ue170006ERS1_, symObjAddr: 0x5334, symBinAddr: 0x100005F5C, symSize: 0x14 }
  - { offsetInCU: 0x1192E, offset: 0x1192E, size: 0x8, addend: 0x0, symName: __ZNSt3__119ostreambuf_iteratorIcNS_11char_traitsIcEEEC2B8ue170006ERNS_13basic_ostreamIcS2_EE, symObjAddr: 0x5348, symBinAddr: 0x100005F70, symSize: 0x54 }
  - { offsetInCU: 0x11966, offset: 0x11966, size: 0x8, addend: 0x0, symName: __ZNKSt3__19basic_iosIcNS_11char_traitsIcEEE5rdbufB8ue170006Ev, symObjAddr: 0x539C, symBinAddr: 0x100005FC4, symSize: 0x24 }
  - { offsetInCU: 0x1198E, offset: 0x1198E, size: 0x8, addend: 0x0, symName: __ZNKSt3__18ios_base5rdbufB8ue170006Ev, symObjAddr: 0x53C0, symBinAddr: 0x100005FE8, symSize: 0x18 }
  - { offsetInCU: 0x119B4, offset: 0x119B4, size: 0x8, addend: 0x0, symName: __ZNSt3__111char_traitsIcE11eq_int_typeB8ue170006Eii, symObjAddr: 0x53D8, symBinAddr: 0x100006000, symSize: 0x28 }
  - { offsetInCU: 0x119E7, offset: 0x119E7, size: 0x8, addend: 0x0, symName: __ZNSt3__111char_traitsIcE3eofB8ue170006Ev, symObjAddr: 0x5400, symBinAddr: 0x100006028, symSize: 0x8 }
  - { offsetInCU: 0x119FB, offset: 0x119FB, size: 0x8, addend: 0x0, symName: __ZNKSt3__19basic_iosIcNS_11char_traitsIcEEE5widenB8ue170006Ec, symObjAddr: 0x5408, symBinAddr: 0x100006030, symSize: 0x84 }
  - { offsetInCU: 0x11A69, offset: 0x11A69, size: 0x8, addend: 0x0, symName: __ZNKSt3__15ctypeIcE5widenB8ue170006Ec, symObjAddr: 0x54B8, symBinAddr: 0x1000060E0, symSize: 0x38 }
  - { offsetInCU: 0x11A9E, offset: 0x11A9E, size: 0x8, addend: 0x0, symName: __ZNSt3__18ios_base8setstateB8ue170006Ej, symObjAddr: 0x54F0, symBinAddr: 0x100006118, symSize: 0x34 }
  - { offsetInCU: 0x11AD5, offset: 0x11AD5, size: 0x8, addend: 0x0, symName: __ZNK6camera13sample_squareEv, symObjAddr: 0x5548, symBinAddr: 0x100006170, symSize: 0x5C }
  - { offsetInCU: 0x11AFB, offset: 0x11AFB, size: 0x8, addend: 0x0, symName: __ZNK6camera19defocus_disk_sampleEv, symObjAddr: 0x55A4, symBinAddr: 0x1000061CC, symSize: 0xD0 }
  - { offsetInCU: 0x11B2F, offset: 0x11B2F, size: 0x8, addend: 0x0, symName: __ZN3rayC1ERK4vec3S0_, symObjAddr: 0x5674, symBinAddr: 0x10000629C, symSize: 0x4C }
  - { offsetInCU: 0x11B74, offset: 0x11B74, size: 0x8, addend: 0x0, symName: __Z19random_in_unit_diskv, symObjAddr: 0x56C0, symBinAddr: 0x1000062E8, symSize: 0x88 }
  - { offsetInCU: 0x11BB0, offset: 0x11BB0, size: 0x8, addend: 0x0, symName: __ZN4vec3ixEi, symObjAddr: 0x5748, symBinAddr: 0x100006370, symSize: 0x20 }
  - { offsetInCU: 0x11BE4, offset: 0x11BE4, size: 0x8, addend: 0x0, symName: __ZN3rayC2ERK4vec3S0_, symObjAddr: 0x5768, symBinAddr: 0x100006390, symSize: 0x48 }
  - { offsetInCU: 0x11C2A, offset: 0x11C2A, size: 0x8, addend: 0x0, symName: __ZN3rayC1Ev, symObjAddr: 0x57B0, symBinAddr: 0x1000063D8, symSize: 0x2C }
  - { offsetInCU: 0x11C54, offset: 0x11C54, size: 0x8, addend: 0x0, symName: __ZNKSt3__110shared_ptrI8materialEptB8ue170006Ev, symObjAddr: 0x57DC, symBinAddr: 0x100006404, symSize: 0x18 }
  - { offsetInCU: 0x11C7A, offset: 0x11C7A, size: 0x8, addend: 0x0, symName: __ZNK3ray13get_directionEv, symObjAddr: 0x57F4, symBinAddr: 0x10000641C, symSize: 0x18 }
  - { offsetInCU: 0x11CA0, offset: 0x11CA0, size: 0x8, addend: 0x0, symName: __ZN3rayC2Ev, symObjAddr: 0x580C, symBinAddr: 0x100006434, symSize: 0x38 }
  - { offsetInCU: 0x11CCA, offset: 0x11CCA, size: 0x8, addend: 0x0, symName: __ZN13hittable_listD2Ev, symObjAddr: 0x5844, symBinAddr: 0x10000646C, symSize: 0x48 }
  - { offsetInCU: 0x11CF6, offset: 0x11CF6, size: 0x8, addend: 0x0, symName: __ZNSt3__16vectorINS_10shared_ptrI8hittableEENS_9allocatorIS3_EEED1B8ue170006Ev, symObjAddr: 0x588C, symBinAddr: 0x1000064B4, symSize: 0x2C }
  - { offsetInCU: 0x11D20, offset: 0x11D20, size: 0x8, addend: 0x0, symName: __ZN8hittableD2Ev, symObjAddr: 0x58B8, symBinAddr: 0x1000064E0, symSize: 0x14 }
  - { offsetInCU: 0x11D4A, offset: 0x11D4A, size: 0x8, addend: 0x0, symName: __ZNSt3__16vectorINS_10shared_ptrI8hittableEENS_9allocatorIS3_EEED2B8ue170006Ev, symObjAddr: 0x58CC, symBinAddr: 0x1000064F4, symSize: 0x44 }
  - { offsetInCU: 0x11D74, offset: 0x11D74, size: 0x8, addend: 0x0, symName: __ZNSt3__16vectorINS_10shared_ptrI8hittableEENS_9allocatorIS3_EEE16__destroy_vectorC1B8ue170006ERS6_, symObjAddr: 0x5910, symBinAddr: 0x100006538, symSize: 0x34 }
  - { offsetInCU: 0x11DAD, offset: 0x11DAD, size: 0x8, addend: 0x0, symName: __ZNSt3__16vectorINS_10shared_ptrI8hittableEENS_9allocatorIS3_EEE16__destroy_vectorclB8ue170006Ev, symObjAddr: 0x5944, symBinAddr: 0x10000656C, symSize: 0x90 }
  - { offsetInCU: 0x11DD3, offset: 0x11DD3, size: 0x8, addend: 0x0, symName: __ZNSt3__16vectorINS_10shared_ptrI8hittableEENS_9allocatorIS3_EEE16__destroy_vectorC2B8ue170006ERS6_, symObjAddr: 0x59D4, symBinAddr: 0x1000065FC, symSize: 0x20 }
  - { offsetInCU: 0x11E0C, offset: 0x11E0C, size: 0x8, addend: 0x0, symName: __ZNSt3__16vectorINS_10shared_ptrI8hittableEENS_9allocatorIS3_EEE7__clearB8ue170006Ev, symObjAddr: 0x59F4, symBinAddr: 0x10000661C, symSize: 0x28 }
  - { offsetInCU: 0x11E32, offset: 0x11E32, size: 0x8, addend: 0x0, symName: __ZNSt3__16vectorINS_10shared_ptrI8hittableEENS_9allocatorIS3_EEE22__base_destruct_at_endB8ue170006EPS3_, symObjAddr: 0x5A1C, symBinAddr: 0x100006644, symSize: 0x8C }
  - { offsetInCU: 0x11E76, offset: 0x11E76, size: 0x8, addend: 0x0, symName: __ZNSt3__110shared_ptrI8materialED2B8ue170006Ev, symObjAddr: 0x5AA8, symBinAddr: 0x1000066D0, symSize: 0x54 }
  - { offsetInCU: 0x11EA0, offset: 0x11EA0, size: 0x8, addend: 0x0, symName: __ZNSt3__119__shared_weak_count16__release_sharedB8ue170006Ev, symObjAddr: 0x5AFC, symBinAddr: 0x100006724, symSize: 0x3C }
  - { offsetInCU: 0x11EC6, offset: 0x11EC6, size: 0x8, addend: 0x0, symName: __ZNSt3__114__shared_count16__release_sharedB8ue170006Ev, symObjAddr: 0x5B38, symBinAddr: 0x100006760, symSize: 0x7C }
  - { offsetInCU: 0x11EEC, offset: 0x11EEC, size: 0x8, addend: 0x0, symName: __ZNSt3__110shared_ptrI8hittableED2B8ue170006Ev, symObjAddr: 0x5BE4, symBinAddr: 0x10000680C, symSize: 0x54 }
  - { offsetInCU: 0x11F16, offset: 0x11F16, size: 0x8, addend: 0x0, symName: __ZNSt3__19allocatorI10lambertianEC1B8ue170006Ev, symObjAddr: 0x5CD0, symBinAddr: 0x1000068F8, symSize: 0x2C }
  - { offsetInCU: 0x11F8B, offset: 0x11F8B, size: 0x8, addend: 0x0, symName: __ZNSt3__118__allocation_guardINS_9allocatorINS_20__shared_ptr_emplaceI10lambertianNS1_IS3_EEEEEEEC1B8ue170006IS4_EET_m, symObjAddr: 0x5CFC, symBinAddr: 0x100006924, symSize: 0x34 }
  - { offsetInCU: 0x11FDA, offset: 0x11FDA, size: 0x8, addend: 0x0, symName: __ZNKSt3__118__allocation_guardINS_9allocatorINS_20__shared_ptr_emplaceI10lambertianNS1_IS3_EEEEEEE5__getB8ue170006Ev, symObjAddr: 0x5D30, symBinAddr: 0x100006958, symSize: 0x18 }
  - { offsetInCU: 0x12005, offset: 0x12005, size: 0x8, addend: 0x0, symName: __ZNSt3__120__shared_ptr_emplaceI10lambertianNS_9allocatorIS1_EEEC1B8ue170006IJ4vec3EEES3_DpOT_, symObjAddr: 0x5D48, symBinAddr: 0x100006970, symSize: 0x34 }
  - { offsetInCU: 0x12058, offset: 0x12058, size: 0x8, addend: 0x0, symName: __ZNSt3__118__allocation_guardINS_9allocatorINS_20__shared_ptr_emplaceI10lambertianNS1_IS3_EEEEEEE13__release_ptrB8ue170006Ev, symObjAddr: 0x5D7C, symBinAddr: 0x1000069A4, symSize: 0x24 }
  - { offsetInCU: 0x1208C, offset: 0x1208C, size: 0x8, addend: 0x0, symName: __ZNSt3__110shared_ptrI10lambertianE27__create_with_control_blockB8ue170006IS1_NS_20__shared_ptr_emplaceIS1_NS_9allocatorIS1_EEEEEES2_PT_PT0_, symObjAddr: 0x5DA0, symBinAddr: 0x1000069C8, symSize: 0xA4 }
  - { offsetInCU: 0x120E1, offset: 0x120E1, size: 0x8, addend: 0x0, symName: __ZNSt3__120__shared_ptr_emplaceI10lambertianNS_9allocatorIS1_EEE10__get_elemB8ue170006Ev, symObjAddr: 0x5E44, symBinAddr: 0x100006A6C, symSize: 0x28 }
  - { offsetInCU: 0x12107, offset: 0x12107, size: 0x8, addend: 0x0, symName: __ZNSt3__118__allocation_guardINS_9allocatorINS_20__shared_ptr_emplaceI10lambertianNS1_IS3_EEEEEEED1B8ue170006Ev, symObjAddr: 0x5E6C, symBinAddr: 0x100006A94, symSize: 0x2C }
  - { offsetInCU: 0x12131, offset: 0x12131, size: 0x8, addend: 0x0, symName: __ZNSt3__118__allocation_guardINS_9allocatorINS_20__shared_ptr_emplaceI10lambertianNS1_IS3_EEEEEEEC2B8ue170006IS4_EET_m, symObjAddr: 0x5E98, symBinAddr: 0x100006AC0, symSize: 0x50 }
  - { offsetInCU: 0x12180, offset: 0x12180, size: 0x8, addend: 0x0, symName: __ZNSt3__19allocatorINS_20__shared_ptr_emplaceI10lambertianNS0_IS2_EEEEEC1B8ue170006IS2_EERKNS0_IT_EE, symObjAddr: 0x5EE8, symBinAddr: 0x100006B10, symSize: 0x34 }
  - { offsetInCU: 0x121BE, offset: 0x121BE, size: 0x8, addend: 0x0, symName: __ZNSt3__116allocator_traitsINS_9allocatorINS_20__shared_ptr_emplaceI10lambertianNS1_IS3_EEEEEEE8allocateB8ue170006ERS6_m, symObjAddr: 0x5F1C, symBinAddr: 0x100006B44, symSize: 0x2C }
  - { offsetInCU: 0x121F1, offset: 0x121F1, size: 0x8, addend: 0x0, symName: __ZNSt3__19allocatorINS_20__shared_ptr_emplaceI10lambertianNS0_IS2_EEEEEC2B8ue170006IS2_EERKNS0_IT_EE, symObjAddr: 0x5F48, symBinAddr: 0x100006B70, symSize: 0x30 }
  - { offsetInCU: 0x1222F, offset: 0x1222F, size: 0x8, addend: 0x0, symName: __ZNSt3__116__non_trivial_ifILb1ENS_9allocatorINS_20__shared_ptr_emplaceI10lambertianNS1_IS3_EEEEEEEC2B8ue170006Ev, symObjAddr: 0x5F78, symBinAddr: 0x100006BA0, symSize: 0x14 }
  - { offsetInCU: 0x12259, offset: 0x12259, size: 0x8, addend: 0x0, symName: __ZNSt3__19allocatorINS_20__shared_ptr_emplaceI10lambertianNS0_IS2_EEEEE8allocateB8ue170006Em, symObjAddr: 0x5F8C, symBinAddr: 0x100006BB4, symSize: 0x5C }
  - { offsetInCU: 0x12297, offset: 0x12297, size: 0x8, addend: 0x0, symName: __ZNSt3__116allocator_traitsINS_9allocatorINS_20__shared_ptr_emplaceI10lambertianNS1_IS3_EEEEEEE8max_sizeB8ue170006IS6_vEEmRKS6_, symObjAddr: 0x5FE8, symBinAddr: 0x100006C10, symSize: 0x24 }
  - { offsetInCU: 0x122C5, offset: 0x122C5, size: 0x8, addend: 0x0, symName: __ZNKSt3__19allocatorINS_20__shared_ptr_emplaceI10lambertianNS0_IS2_EEEEE8max_sizeB8ue170006Ev, symObjAddr: 0x600C, symBinAddr: 0x100006C34, symSize: 0x20 }
  - { offsetInCU: 0x122EB, offset: 0x122EB, size: 0x8, addend: 0x0, symName: __ZNSt3__120__shared_ptr_emplaceI10lambertianNS_9allocatorIS1_EEEC2B8ue170006IJ4vec3EEES3_DpOT_, symObjAddr: 0x602C, symBinAddr: 0x100006C54, symSize: 0xB8 }
  - { offsetInCU: 0x1233E, offset: 0x1233E, size: 0x8, addend: 0x0, symName: __ZNSt3__119__shared_weak_countC2B8ue170006El, symObjAddr: 0x60E4, symBinAddr: 0x100006D0C, symSize: 0x54 }
  - { offsetInCU: 0x12376, offset: 0x12376, size: 0x8, addend: 0x0, symName: __ZNSt3__120__shared_ptr_emplaceI10lambertianNS_9allocatorIS1_EEE8_StorageC1B8ue170006EOS3_, symObjAddr: 0x6138, symBinAddr: 0x100006D60, symSize: 0x34 }
  - { offsetInCU: 0x123AF, offset: 0x123AF, size: 0x8, addend: 0x0, symName: __ZN10lambertianC1ERK4vec3, symObjAddr: 0x616C, symBinAddr: 0x100006D94, symSize: 0x34 }
  - { offsetInCU: 0x123E7, offset: 0x123E7, size: 0x8, addend: 0x0, symName: __ZNSt3__120__shared_ptr_emplaceI10lambertianNS_9allocatorIS1_EEE8_StorageD1B8ue170006Ev, symObjAddr: 0x61A0, symBinAddr: 0x100006DC8, symSize: 0x2C }
  - { offsetInCU: 0x12411, offset: 0x12411, size: 0x8, addend: 0x0, symName: __ZNSt3__120__shared_ptr_emplaceI10lambertianNS_9allocatorIS1_EEED1Ev, symObjAddr: 0x61CC, symBinAddr: 0x100006DF4, symSize: 0x2C }
  - { offsetInCU: 0x1243E, offset: 0x1243E, size: 0x8, addend: 0x0, symName: __ZNSt3__120__shared_ptr_emplaceI10lambertianNS_9allocatorIS1_EEED0Ev, symObjAddr: 0x61F8, symBinAddr: 0x100006E20, symSize: 0x30 }
  - { offsetInCU: 0x1246B, offset: 0x1246B, size: 0x8, addend: 0x0, symName: __ZNSt3__120__shared_ptr_emplaceI10lambertianNS_9allocatorIS1_EEE16__on_zero_sharedEv, symObjAddr: 0x6228, symBinAddr: 0x100006E50, symSize: 0x30 }
  - { offsetInCU: 0x12491, offset: 0x12491, size: 0x8, addend: 0x0, symName: __ZNSt3__120__shared_ptr_emplaceI10lambertianNS_9allocatorIS1_EEE21__on_zero_shared_weakEv, symObjAddr: 0x6258, symBinAddr: 0x100006E80, symSize: 0x5C }
  - { offsetInCU: 0x124D2, offset: 0x124D2, size: 0x8, addend: 0x0, symName: __ZNSt3__114__shared_countC2B8ue170006El, symObjAddr: 0x62B4, symBinAddr: 0x100006EDC, symSize: 0x30 }
  - { offsetInCU: 0x1250A, offset: 0x1250A, size: 0x8, addend: 0x0, symName: __ZNSt3__120__shared_ptr_emplaceI10lambertianNS_9allocatorIS1_EEE8_StorageC2B8ue170006EOS3_, symObjAddr: 0x62E4, symBinAddr: 0x100006F0C, symSize: 0x30 }
  - { offsetInCU: 0x12543, offset: 0x12543, size: 0x8, addend: 0x0, symName: __ZNSt3__120__shared_ptr_emplaceI10lambertianNS_9allocatorIS1_EEE8_Storage11__get_allocB8ue170006Ev, symObjAddr: 0x6314, symBinAddr: 0x100006F3C, symSize: 0x3C }
  - { offsetInCU: 0x12596, offset: 0x12596, size: 0x8, addend: 0x0, symName: __ZNSt3__117__compressed_pairINS_9allocatorI10lambertianEES2_E16__get_first_baseB8ue170006EPS4_, symObjAddr: 0x6350, symBinAddr: 0x100006F78, symSize: 0x14 }
  - { offsetInCU: 0x125B9, offset: 0x125B9, size: 0x8, addend: 0x0, symName: __ZN10lambertianC2ERK4vec3, symObjAddr: 0x6364, symBinAddr: 0x100006F8C, symSize: 0x5C }
  - { offsetInCU: 0x125F1, offset: 0x125F1, size: 0x8, addend: 0x0, symName: __ZN8materialC2Ev, symObjAddr: 0x63C0, symBinAddr: 0x100006FE8, symSize: 0x24 }
  - { offsetInCU: 0x1261D, offset: 0x1261D, size: 0x8, addend: 0x0, symName: __ZN10lambertianD1Ev, symObjAddr: 0x63E4, symBinAddr: 0x10000700C, symSize: 0x2C }
  - { offsetInCU: 0x12649, offset: 0x12649, size: 0x8, addend: 0x0, symName: __ZN10lambertianD0Ev, symObjAddr: 0x6410, symBinAddr: 0x100007038, symSize: 0x30 }
  - { offsetInCU: 0x12675, offset: 0x12675, size: 0x8, addend: 0x0, symName: __ZNK10lambertian7scatterERK3rayRK10hit_recordR4vec3RS0_, symObjAddr: 0x6440, symBinAddr: 0x100007068, symSize: 0xEC }
  - { offsetInCU: 0x126E1, offset: 0x126E1, size: 0x8, addend: 0x0, symName: __ZN8materialD1Ev, symObjAddr: 0x652C, symBinAddr: 0x100007154, symSize: 0x2C }
  - { offsetInCU: 0x1270B, offset: 0x1270B, size: 0x8, addend: 0x0, symName: __ZN8materialD0Ev, symObjAddr: 0x6558, symBinAddr: 0x100007180, symSize: 0x30 }
  - { offsetInCU: 0x12735, offset: 0x12735, size: 0x8, addend: 0x0, symName: __ZNK8material7scatterERK3rayRK10hit_recordR4vec3RS0_, symObjAddr: 0x6588, symBinAddr: 0x1000071B0, symSize: 0x28 }
  - { offsetInCU: 0x12793, offset: 0x12793, size: 0x8, addend: 0x0, symName: __ZN8materialD2Ev, symObjAddr: 0x65B0, symBinAddr: 0x1000071D8, symSize: 0x14 }
  - { offsetInCU: 0x127BD, offset: 0x127BD, size: 0x8, addend: 0x0, symName: __ZN10lambertianD2Ev, symObjAddr: 0x65C4, symBinAddr: 0x1000071EC, symSize: 0x2C }
  - { offsetInCU: 0x127E9, offset: 0x127E9, size: 0x8, addend: 0x0, symName: __Z18random_unit_vectorv, symObjAddr: 0x65F0, symBinAddr: 0x100007218, symSize: 0x48 }
  - { offsetInCU: 0x12807, offset: 0x12807, size: 0x8, addend: 0x0, symName: __ZN4vec39near_zeroEv, symObjAddr: 0x6638, symBinAddr: 0x100007260, symSize: 0x98 }
  - { offsetInCU: 0x1283A, offset: 0x1283A, size: 0x8, addend: 0x0, symName: __Z21random_in_unit_spherev, symObjAddr: 0x66D0, symBinAddr: 0x1000072F8, symSize: 0x64 }
  - { offsetInCU: 0x12876, offset: 0x12876, size: 0x8, addend: 0x0, symName: __ZNSt3__120__shared_ptr_emplaceI10lambertianNS_9allocatorIS1_EEE8_StorageD2B8ue170006Ev, symObjAddr: 0x6734, symBinAddr: 0x10000735C, symSize: 0x2C }
  - { offsetInCU: 0x128A0, offset: 0x128A0, size: 0x8, addend: 0x0, symName: __ZNSt3__120__shared_ptr_emplaceI10lambertianNS_9allocatorIS1_EEED2Ev, symObjAddr: 0x6760, symBinAddr: 0x100007388, symSize: 0x48 }
  - { offsetInCU: 0x128CD, offset: 0x128CD, size: 0x8, addend: 0x0, symName: __ZNSt3__120__shared_ptr_emplaceI10lambertianNS_9allocatorIS1_EEE11__get_allocB8ue170006Ev, symObjAddr: 0x67A8, symBinAddr: 0x1000073D0, symSize: 0x28 }
  - { offsetInCU: 0x128F3, offset: 0x128F3, size: 0x8, addend: 0x0, symName: __ZNSt3__116allocator_traitsINS_9allocatorINS_20__shared_ptr_emplaceI10lambertianNS1_IS3_EEEEEEE10deallocateB8ue170006ERS6_PS5_m, symObjAddr: 0x67D0, symBinAddr: 0x1000073F8, symSize: 0x34 }
  - { offsetInCU: 0x12935, offset: 0x12935, size: 0x8, addend: 0x0, symName: __ZNSt3__114pointer_traitsIPNS_20__shared_ptr_emplaceI10lambertianNS_9allocatorIS2_EEEEE10pointer_toB8ue170006ERS5_, symObjAddr: 0x6804, symBinAddr: 0x10000742C, symSize: 0x14 }
  - { offsetInCU: 0x12958, offset: 0x12958, size: 0x8, addend: 0x0, symName: __ZNSt3__19allocatorINS_20__shared_ptr_emplaceI10lambertianNS0_IS2_EEEEE10deallocateB8ue170006EPS4_m, symObjAddr: 0x6818, symBinAddr: 0x100007440, symSize: 0x44 }
  - { offsetInCU: 0x1299A, offset: 0x1299A, size: 0x8, addend: 0x0, symName: __ZNSt3__110shared_ptrI10lambertianEC1B8ue170006Ev, symObjAddr: 0x685C, symBinAddr: 0x100007484, symSize: 0x2C }
  - { offsetInCU: 0x129C4, offset: 0x129C4, size: 0x8, addend: 0x0, symName: __ZNSt3__110shared_ptrI10lambertianE18__enable_weak_thisB8ue170006Ez, symObjAddr: 0x6888, symBinAddr: 0x1000074B0, symSize: 0x10 }
  - { offsetInCU: 0x129EB, offset: 0x129EB, size: 0x8, addend: 0x0, symName: __ZNSt3__110shared_ptrI10lambertianEC2B8ue170006Ev, symObjAddr: 0x6898, symBinAddr: 0x1000074C0, symSize: 0x1C }
  - { offsetInCU: 0x12A15, offset: 0x12A15, size: 0x8, addend: 0x0, symName: __ZNSt3__120__shared_ptr_emplaceI10lambertianNS_9allocatorIS1_EEE8_Storage10__get_elemB8ue170006Ev, symObjAddr: 0x68B4, symBinAddr: 0x1000074DC, symSize: 0x3C }
  - { offsetInCU: 0x12A68, offset: 0x12A68, size: 0x8, addend: 0x0, symName: __ZNSt3__117__compressed_pairINS_9allocatorI10lambertianEES2_E17__get_second_baseB8ue170006EPS4_, symObjAddr: 0x68F0, symBinAddr: 0x100007518, symSize: 0x14 }
  - { offsetInCU: 0x12A8B, offset: 0x12A8B, size: 0x8, addend: 0x0, symName: __ZNSt3__118__allocation_guardINS_9allocatorINS_20__shared_ptr_emplaceI10lambertianNS1_IS3_EEEEEEED2B8ue170006Ev, symObjAddr: 0x6904, symBinAddr: 0x10000752C, symSize: 0x2C }
  - { offsetInCU: 0x12AB5, offset: 0x12AB5, size: 0x8, addend: 0x0, symName: __ZNSt3__118__allocation_guardINS_9allocatorINS_20__shared_ptr_emplaceI10lambertianNS1_IS3_EEEEEEE9__destroyB8ue170006Ev, symObjAddr: 0x6930, symBinAddr: 0x100007558, symSize: 0x4C }
  - { offsetInCU: 0x12ADB, offset: 0x12ADB, size: 0x8, addend: 0x0, symName: __ZNSt3__19allocatorI10lambertianEC2B8ue170006Ev, symObjAddr: 0x697C, symBinAddr: 0x1000075A4, symSize: 0x2C }
  - { offsetInCU: 0x12B05, offset: 0x12B05, size: 0x8, addend: 0x0, symName: __ZNSt3__116__non_trivial_ifILb1ENS_9allocatorI10lambertianEEEC2B8ue170006Ev, symObjAddr: 0x69A8, symBinAddr: 0x1000075D0, symSize: 0x14 }
  - { offsetInCU: 0x12B2F, offset: 0x12B2F, size: 0x8, addend: 0x0, symName: __ZNSt3__110shared_ptrI10lambertianED2B8ue170006Ev, symObjAddr: 0x69BC, symBinAddr: 0x1000075E4, symSize: 0x54 }
  - { offsetInCU: 0x12B59, offset: 0x12B59, size: 0x8, addend: 0x0, symName: __ZNSt3__19allocatorI6sphereEC1B8ue170006Ev, symObjAddr: 0x6AB8, symBinAddr: 0x1000076E0, symSize: 0x2C }
  - { offsetInCU: 0x12BCE, offset: 0x12BCE, size: 0x8, addend: 0x0, symName: __ZNSt3__118__allocation_guardINS_9allocatorINS_20__shared_ptr_emplaceI6sphereNS1_IS3_EEEEEEEC1B8ue170006IS4_EET_m, symObjAddr: 0x6AE4, symBinAddr: 0x10000770C, symSize: 0x34 }
  - { offsetInCU: 0x12C1D, offset: 0x12C1D, size: 0x8, addend: 0x0, symName: __ZNKSt3__118__allocation_guardINS_9allocatorINS_20__shared_ptr_emplaceI6sphereNS1_IS3_EEEEEEE5__getB8ue170006Ev, symObjAddr: 0x6B18, symBinAddr: 0x100007740, symSize: 0x18 }
  - { offsetInCU: 0x12C48, offset: 0x12C48, size: 0x8, addend: 0x0, symName: __ZNSt3__120__shared_ptr_emplaceI6sphereNS_9allocatorIS1_EEEC1B8ue170006IJ4vec3iRNS_10shared_ptrI10lambertianEEEEES3_DpOT_, symObjAddr: 0x6B30, symBinAddr: 0x100007758, symSize: 0x44 }
  - { offsetInCU: 0x12CC3, offset: 0x12CC3, size: 0x8, addend: 0x0, symName: __ZNSt3__118__allocation_guardINS_9allocatorINS_20__shared_ptr_emplaceI6sphereNS1_IS3_EEEEEEE13__release_ptrB8ue170006Ev, symObjAddr: 0x6B74, symBinAddr: 0x10000779C, symSize: 0x24 }
  - { offsetInCU: 0x12CF7, offset: 0x12CF7, size: 0x8, addend: 0x0, symName: __ZNSt3__110shared_ptrI6sphereE27__create_with_control_blockB8ue170006IS1_NS_20__shared_ptr_emplaceIS1_NS_9allocatorIS1_EEEEEES2_PT_PT0_, symObjAddr: 0x6B98, symBinAddr: 0x1000077C0, symSize: 0xA4 }
  - { offsetInCU: 0x12D4C, offset: 0x12D4C, size: 0x8, addend: 0x0, symName: __ZNSt3__120__shared_ptr_emplaceI6sphereNS_9allocatorIS1_EEE10__get_elemB8ue170006Ev, symObjAddr: 0x6C3C, symBinAddr: 0x100007864, symSize: 0x28 }
  - { offsetInCU: 0x12D72, offset: 0x12D72, size: 0x8, addend: 0x0, symName: __ZNSt3__118__allocation_guardINS_9allocatorINS_20__shared_ptr_emplaceI6sphereNS1_IS3_EEEEEEED1B8ue170006Ev, symObjAddr: 0x6C64, symBinAddr: 0x10000788C, symSize: 0x2C }
  - { offsetInCU: 0x12D9C, offset: 0x12D9C, size: 0x8, addend: 0x0, symName: __ZNSt3__118__allocation_guardINS_9allocatorINS_20__shared_ptr_emplaceI6sphereNS1_IS3_EEEEEEEC2B8ue170006IS4_EET_m, symObjAddr: 0x6C90, symBinAddr: 0x1000078B8, symSize: 0x50 }
  - { offsetInCU: 0x12DEB, offset: 0x12DEB, size: 0x8, addend: 0x0, symName: __ZNSt3__19allocatorINS_20__shared_ptr_emplaceI6sphereNS0_IS2_EEEEEC1B8ue170006IS2_EERKNS0_IT_EE, symObjAddr: 0x6CE0, symBinAddr: 0x100007908, symSize: 0x34 }
  - { offsetInCU: 0x12E29, offset: 0x12E29, size: 0x8, addend: 0x0, symName: __ZNSt3__116allocator_traitsINS_9allocatorINS_20__shared_ptr_emplaceI6sphereNS1_IS3_EEEEEEE8allocateB8ue170006ERS6_m, symObjAddr: 0x6D14, symBinAddr: 0x10000793C, symSize: 0x2C }
  - { offsetInCU: 0x12E5C, offset: 0x12E5C, size: 0x8, addend: 0x0, symName: __ZNSt3__19allocatorINS_20__shared_ptr_emplaceI6sphereNS0_IS2_EEEEEC2B8ue170006IS2_EERKNS0_IT_EE, symObjAddr: 0x6D40, symBinAddr: 0x100007968, symSize: 0x30 }
  - { offsetInCU: 0x12E9A, offset: 0x12E9A, size: 0x8, addend: 0x0, symName: __ZNSt3__116__non_trivial_ifILb1ENS_9allocatorINS_20__shared_ptr_emplaceI6sphereNS1_IS3_EEEEEEEC2B8ue170006Ev, symObjAddr: 0x6D70, symBinAddr: 0x100007998, symSize: 0x14 }
  - { offsetInCU: 0x12EC4, offset: 0x12EC4, size: 0x8, addend: 0x0, symName: __ZNSt3__19allocatorINS_20__shared_ptr_emplaceI6sphereNS0_IS2_EEEEE8allocateB8ue170006Em, symObjAddr: 0x6D84, symBinAddr: 0x1000079AC, symSize: 0x5C }
  - { offsetInCU: 0x12F02, offset: 0x12F02, size: 0x8, addend: 0x0, symName: __ZNSt3__116allocator_traitsINS_9allocatorINS_20__shared_ptr_emplaceI6sphereNS1_IS3_EEEEEEE8max_sizeB8ue170006IS6_vEEmRKS6_, symObjAddr: 0x6DE0, symBinAddr: 0x100007A08, symSize: 0x24 }
  - { offsetInCU: 0x12F30, offset: 0x12F30, size: 0x8, addend: 0x0, symName: __ZNKSt3__19allocatorINS_20__shared_ptr_emplaceI6sphereNS0_IS2_EEEEE8max_sizeB8ue170006Ev, symObjAddr: 0x6E04, symBinAddr: 0x100007A2C, symSize: 0x18 }
  - { offsetInCU: 0x12F56, offset: 0x12F56, size: 0x8, addend: 0x0, symName: __ZNSt3__120__shared_ptr_emplaceI6sphereNS_9allocatorIS1_EEEC2B8ue170006IJ4vec3iRNS_10shared_ptrI10lambertianEEEEES3_DpOT_, symObjAddr: 0x6E1C, symBinAddr: 0x100007A44, symSize: 0x10C }
  - { offsetInCU: 0x12FD1, offset: 0x12FD1, size: 0x8, addend: 0x0, symName: __ZNSt3__120__shared_ptr_emplaceI6sphereNS_9allocatorIS1_EEE8_StorageC1B8ue170006EOS3_, symObjAddr: 0x6F28, symBinAddr: 0x100007B50, symSize: 0x34 }
  - { offsetInCU: 0x1300A, offset: 0x1300A, size: 0x8, addend: 0x0, symName: __ZNSt3__110shared_ptrI8materialEC1B8ue170006I10lambertianvEERKNS0_IT_EE, symObjAddr: 0x6F5C, symBinAddr: 0x100007B84, symSize: 0x34 }
  - { offsetInCU: 0x1304D, offset: 0x1304D, size: 0x8, addend: 0x0, symName: __ZN6sphereC1ERK4vec3dNSt3__110shared_ptrI8materialEE, symObjAddr: 0x6F90, symBinAddr: 0x100007BB8, symSize: 0x44 }
  - { offsetInCU: 0x130A2, offset: 0x130A2, size: 0x8, addend: 0x0, symName: __ZNSt3__120__shared_ptr_emplaceI6sphereNS_9allocatorIS1_EEE8_StorageD1B8ue170006Ev, symObjAddr: 0x6FD4, symBinAddr: 0x100007BFC, symSize: 0x2C }
  - { offsetInCU: 0x130CC, offset: 0x130CC, size: 0x8, addend: 0x0, symName: __ZNSt3__120__shared_ptr_emplaceI6sphereNS_9allocatorIS1_EEED1Ev, symObjAddr: 0x7000, symBinAddr: 0x100007C28, symSize: 0x2C }
  - { offsetInCU: 0x130F9, offset: 0x130F9, size: 0x8, addend: 0x0, symName: __ZNSt3__120__shared_ptr_emplaceI6sphereNS_9allocatorIS1_EEED0Ev, symObjAddr: 0x702C, symBinAddr: 0x100007C54, symSize: 0x30 }
  - { offsetInCU: 0x13126, offset: 0x13126, size: 0x8, addend: 0x0, symName: __ZNSt3__120__shared_ptr_emplaceI6sphereNS_9allocatorIS1_EEE16__on_zero_sharedEv, symObjAddr: 0x705C, symBinAddr: 0x100007C84, symSize: 0x30 }
  - { offsetInCU: 0x1314C, offset: 0x1314C, size: 0x8, addend: 0x0, symName: __ZNSt3__120__shared_ptr_emplaceI6sphereNS_9allocatorIS1_EEE21__on_zero_shared_weakEv, symObjAddr: 0x708C, symBinAddr: 0x100007CB4, symSize: 0x5C }
  - { offsetInCU: 0x1318D, offset: 0x1318D, size: 0x8, addend: 0x0, symName: __ZNSt3__120__shared_ptr_emplaceI6sphereNS_9allocatorIS1_EEE8_StorageC2B8ue170006EOS3_, symObjAddr: 0x70E8, symBinAddr: 0x100007D10, symSize: 0x30 }
  - { offsetInCU: 0x131C6, offset: 0x131C6, size: 0x8, addend: 0x0, symName: __ZNSt3__120__shared_ptr_emplaceI6sphereNS_9allocatorIS1_EEE8_Storage11__get_allocB8ue170006Ev, symObjAddr: 0x7118, symBinAddr: 0x100007D40, symSize: 0x3C }
  - { offsetInCU: 0x13219, offset: 0x13219, size: 0x8, addend: 0x0, symName: __ZNSt3__117__compressed_pairINS_9allocatorI6sphereEES2_E16__get_first_baseB8ue170006EPS4_, symObjAddr: 0x7154, symBinAddr: 0x100007D7C, symSize: 0x14 }
  - { offsetInCU: 0x1323C, offset: 0x1323C, size: 0x8, addend: 0x0, symName: __ZNSt3__110shared_ptrI8materialEC2B8ue170006I10lambertianvEERKNS0_IT_EE, symObjAddr: 0x7168, symBinAddr: 0x100007D90, symSize: 0x70 }
  - { offsetInCU: 0x1327F, offset: 0x1327F, size: 0x8, addend: 0x0, symName: __ZN6sphereC2ERK4vec3dNSt3__110shared_ptrI8materialEE, symObjAddr: 0x71D8, symBinAddr: 0x100007E00, symSize: 0x8C }
  - { offsetInCU: 0x132D4, offset: 0x132D4, size: 0x8, addend: 0x0, symName: __ZN6sphereD1Ev, symObjAddr: 0x7290, symBinAddr: 0x100007EB8, symSize: 0x2C }
  - { offsetInCU: 0x13300, offset: 0x13300, size: 0x8, addend: 0x0, symName: __ZN6sphereD0Ev, symObjAddr: 0x72BC, symBinAddr: 0x100007EE4, symSize: 0x30 }
  - { offsetInCU: 0x1332C, offset: 0x1332C, size: 0x8, addend: 0x0, symName: __ZNK6sphere3hitERK3ray8intervalR10hit_record, symObjAddr: 0x72EC, symBinAddr: 0x100007F14, symSize: 0x218 }
  - { offsetInCU: 0x133F3, offset: 0x133F3, size: 0x8, addend: 0x0, symName: __ZN6sphereD2Ev, symObjAddr: 0x7504, symBinAddr: 0x10000812C, symSize: 0x48 }
  - { offsetInCU: 0x1341F, offset: 0x1341F, size: 0x8, addend: 0x0, symName: __ZNK3ray10get_originEv, symObjAddr: 0x754C, symBinAddr: 0x100008174, symSize: 0x14 }
  - { offsetInCU: 0x13444, offset: 0x13444, size: 0x8, addend: 0x0, symName: __Z11dot_productRK4vec3S1_, symObjAddr: 0x7560, symBinAddr: 0x100008188, symSize: 0x50 }
  - { offsetInCU: 0x1347F, offset: 0x1347F, size: 0x8, addend: 0x0, symName: __ZNK8interval9surroundsEd, symObjAddr: 0x75B0, symBinAddr: 0x1000081D8, symSize: 0x60 }
  - { offsetInCU: 0x134B3, offset: 0x134B3, size: 0x8, addend: 0x0, symName: __ZNK3ray2atEd, symObjAddr: 0x7610, symBinAddr: 0x100008238, symSize: 0x64 }
  - { offsetInCU: 0x134E7, offset: 0x134E7, size: 0x8, addend: 0x0, symName: __ZN10hit_record15set_face_normalERK3rayRK4vec3, symObjAddr: 0x7674, symBinAddr: 0x10000829C, symSize: 0xA4 }
  - { offsetInCU: 0x13529, offset: 0x13529, size: 0x8, addend: 0x0, symName: __ZNSt3__120__shared_ptr_emplaceI6sphereNS_9allocatorIS1_EEE8_StorageD2B8ue170006Ev, symObjAddr: 0x7718, symBinAddr: 0x100008340, symSize: 0x2C }
  - { offsetInCU: 0x13553, offset: 0x13553, size: 0x8, addend: 0x0, symName: __ZNSt3__120__shared_ptr_emplaceI6sphereNS_9allocatorIS1_EEED2Ev, symObjAddr: 0x7744, symBinAddr: 0x10000836C, symSize: 0x48 }
  - { offsetInCU: 0x13580, offset: 0x13580, size: 0x8, addend: 0x0, symName: __ZNSt3__120__shared_ptr_emplaceI6sphereNS_9allocatorIS1_EEE11__get_allocB8ue170006Ev, symObjAddr: 0x778C, symBinAddr: 0x1000083B4, symSize: 0x28 }
  - { offsetInCU: 0x135A6, offset: 0x135A6, size: 0x8, addend: 0x0, symName: __ZNSt3__116allocator_traitsINS_9allocatorINS_20__shared_ptr_emplaceI6sphereNS1_IS3_EEEEEEE10deallocateB8ue170006ERS6_PS5_m, symObjAddr: 0x77B4, symBinAddr: 0x1000083DC, symSize: 0x34 }
  - { offsetInCU: 0x135E8, offset: 0x135E8, size: 0x8, addend: 0x0, symName: __ZNSt3__114pointer_traitsIPNS_20__shared_ptr_emplaceI6sphereNS_9allocatorIS2_EEEEE10pointer_toB8ue170006ERS5_, symObjAddr: 0x77E8, symBinAddr: 0x100008410, symSize: 0x14 }
  - { offsetInCU: 0x1360B, offset: 0x1360B, size: 0x8, addend: 0x0, symName: __ZNSt3__19allocatorINS_20__shared_ptr_emplaceI6sphereNS0_IS2_EEEEE10deallocateB8ue170006EPS4_m, symObjAddr: 0x77FC, symBinAddr: 0x100008424, symSize: 0x44 }
  - { offsetInCU: 0x1364D, offset: 0x1364D, size: 0x8, addend: 0x0, symName: __ZNSt3__110shared_ptrI6sphereEC1B8ue170006Ev, symObjAddr: 0x7840, symBinAddr: 0x100008468, symSize: 0x2C }
  - { offsetInCU: 0x13677, offset: 0x13677, size: 0x8, addend: 0x0, symName: __ZNSt3__110shared_ptrI6sphereE18__enable_weak_thisB8ue170006Ez, symObjAddr: 0x786C, symBinAddr: 0x100008494, symSize: 0x10 }
  - { offsetInCU: 0x1369E, offset: 0x1369E, size: 0x8, addend: 0x0, symName: __ZNSt3__110shared_ptrI6sphereEC2B8ue170006Ev, symObjAddr: 0x787C, symBinAddr: 0x1000084A4, symSize: 0x1C }
  - { offsetInCU: 0x136C8, offset: 0x136C8, size: 0x8, addend: 0x0, symName: __ZNSt3__120__shared_ptr_emplaceI6sphereNS_9allocatorIS1_EEE8_Storage10__get_elemB8ue170006Ev, symObjAddr: 0x7898, symBinAddr: 0x1000084C0, symSize: 0x3C }
  - { offsetInCU: 0x1371B, offset: 0x1371B, size: 0x8, addend: 0x0, symName: __ZNSt3__117__compressed_pairINS_9allocatorI6sphereEES2_E17__get_second_baseB8ue170006EPS4_, symObjAddr: 0x78D4, symBinAddr: 0x1000084FC, symSize: 0x14 }
  - { offsetInCU: 0x1373E, offset: 0x1373E, size: 0x8, addend: 0x0, symName: __ZNSt3__118__allocation_guardINS_9allocatorINS_20__shared_ptr_emplaceI6sphereNS1_IS3_EEEEEEED2B8ue170006Ev, symObjAddr: 0x78E8, symBinAddr: 0x100008510, symSize: 0x2C }
  - { offsetInCU: 0x13768, offset: 0x13768, size: 0x8, addend: 0x0, symName: __ZNSt3__118__allocation_guardINS_9allocatorINS_20__shared_ptr_emplaceI6sphereNS1_IS3_EEEEEEE9__destroyB8ue170006Ev, symObjAddr: 0x7914, symBinAddr: 0x10000853C, symSize: 0x4C }
  - { offsetInCU: 0x1378E, offset: 0x1378E, size: 0x8, addend: 0x0, symName: __ZNSt3__19allocatorI6sphereEC2B8ue170006Ev, symObjAddr: 0x7960, symBinAddr: 0x100008588, symSize: 0x2C }
  - { offsetInCU: 0x137B8, offset: 0x137B8, size: 0x8, addend: 0x0, symName: __ZNSt3__116__non_trivial_ifILb1ENS_9allocatorI6sphereEEEC2B8ue170006Ev, symObjAddr: 0x798C, symBinAddr: 0x1000085B4, symSize: 0x14 }
  - { offsetInCU: 0x137E2, offset: 0x137E2, size: 0x8, addend: 0x0, symName: __ZNSt3__110shared_ptrI6sphereED2B8ue170006Ev, symObjAddr: 0x79A0, symBinAddr: 0x1000085C8, symSize: 0x54 }
  - { offsetInCU: 0x1380C, offset: 0x1380C, size: 0x8, addend: 0x0, symName: __ZNSt3__110shared_ptrI8hittableEC2B8ue170006I6spherevEEONS0_IT_EE, symObjAddr: 0x79F4, symBinAddr: 0x10000861C, symSize: 0x40 }
  - { offsetInCU: 0x1384F, offset: 0x1384F, size: 0x8, addend: 0x0, symName: __ZNSt3__120__shared_ptr_emplaceI10lambertianNS_9allocatorIS1_EEEC1B8ue170006IJR4vec3EEES3_DpOT_, symObjAddr: 0x7ACC, symBinAddr: 0x1000086F4, symSize: 0x34 }
  - { offsetInCU: 0x138A2, offset: 0x138A2, size: 0x8, addend: 0x0, symName: __ZNSt3__120__shared_ptr_emplaceI10lambertianNS_9allocatorIS1_EEEC2B8ue170006IJR4vec3EEES3_DpOT_, symObjAddr: 0x7B00, symBinAddr: 0x100008728, symSize: 0xB8 }
  - { offsetInCU: 0x138F5, offset: 0x138F5, size: 0x8, addend: 0x0, symName: __ZNSt3__110shared_ptrI8materialEC1B8ue170006I10lambertianvEEONS0_IT_EE, symObjAddr: 0x7BB8, symBinAddr: 0x1000087E0, symSize: 0x34 }
  - { offsetInCU: 0x13938, offset: 0x13938, size: 0x8, addend: 0x0, symName: __ZNSt3__110shared_ptrI8materialEC2B8ue170006I10lambertianvEEONS0_IT_EE, symObjAddr: 0x7BEC, symBinAddr: 0x100008814, symSize: 0x40 }
  - { offsetInCU: 0x13980, offset: 0x13980, size: 0x8, addend: 0x0, symName: __ZNSt3__120__shared_ptr_emplaceI6sphereNS_9allocatorIS1_EEEC1B8ue170006IJR4vec3dRNS_10shared_ptrI8materialEEEEES3_DpOT_, symObjAddr: 0x7CD4, symBinAddr: 0x1000088FC, symSize: 0x44 }
  - { offsetInCU: 0x139FB, offset: 0x139FB, size: 0x8, addend: 0x0, symName: __ZNSt3__120__shared_ptr_emplaceI6sphereNS_9allocatorIS1_EEEC2B8ue170006IJR4vec3dRNS_10shared_ptrI8materialEEEEES3_DpOT_, symObjAddr: 0x7D18, symBinAddr: 0x100008940, symSize: 0x100 }
  - { offsetInCU: 0x13A76, offset: 0x13A76, size: 0x8, addend: 0x0, symName: __ZNSt3__19allocatorI5metalEC1B8ue170006Ev, symObjAddr: 0x7EB8, symBinAddr: 0x100008AE0, symSize: 0x2C }
  - { offsetInCU: 0x13AEB, offset: 0x13AEB, size: 0x8, addend: 0x0, symName: __ZNSt3__118__allocation_guardINS_9allocatorINS_20__shared_ptr_emplaceI5metalNS1_IS3_EEEEEEEC1B8ue170006IS4_EET_m, symObjAddr: 0x7EE4, symBinAddr: 0x100008B0C, symSize: 0x34 }
  - { offsetInCU: 0x13B3A, offset: 0x13B3A, size: 0x8, addend: 0x0, symName: __ZNKSt3__118__allocation_guardINS_9allocatorINS_20__shared_ptr_emplaceI5metalNS1_IS3_EEEEEEE5__getB8ue170006Ev, symObjAddr: 0x7F18, symBinAddr: 0x100008B40, symSize: 0x18 }
  - { offsetInCU: 0x13B60, offset: 0x13B60, size: 0x8, addend: 0x0, symName: __ZNSt3__120__shared_ptr_emplaceI5metalNS_9allocatorIS1_EEEC1B8ue170006IJR4vec3RdEEES3_DpOT_, symObjAddr: 0x7F30, symBinAddr: 0x100008B58, symSize: 0x3C }
  - { offsetInCU: 0x13BC7, offset: 0x13BC7, size: 0x8, addend: 0x0, symName: __ZNSt3__118__allocation_guardINS_9allocatorINS_20__shared_ptr_emplaceI5metalNS1_IS3_EEEEEEE13__release_ptrB8ue170006Ev, symObjAddr: 0x7F6C, symBinAddr: 0x100008B94, symSize: 0x24 }
  - { offsetInCU: 0x13BFB, offset: 0x13BFB, size: 0x8, addend: 0x0, symName: __ZNSt3__110shared_ptrI5metalE27__create_with_control_blockB8ue170006IS1_NS_20__shared_ptr_emplaceIS1_NS_9allocatorIS1_EEEEEES2_PT_PT0_, symObjAddr: 0x7F90, symBinAddr: 0x100008BB8, symSize: 0xA4 }
  - { offsetInCU: 0x13C50, offset: 0x13C50, size: 0x8, addend: 0x0, symName: __ZNSt3__120__shared_ptr_emplaceI5metalNS_9allocatorIS1_EEE10__get_elemB8ue170006Ev, symObjAddr: 0x8034, symBinAddr: 0x100008C5C, symSize: 0x28 }
  - { offsetInCU: 0x13C76, offset: 0x13C76, size: 0x8, addend: 0x0, symName: __ZNSt3__118__allocation_guardINS_9allocatorINS_20__shared_ptr_emplaceI5metalNS1_IS3_EEEEEEED1B8ue170006Ev, symObjAddr: 0x805C, symBinAddr: 0x100008C84, symSize: 0x2C }
  - { offsetInCU: 0x13CA0, offset: 0x13CA0, size: 0x8, addend: 0x0, symName: __ZNSt3__118__allocation_guardINS_9allocatorINS_20__shared_ptr_emplaceI5metalNS1_IS3_EEEEEEEC2B8ue170006IS4_EET_m, symObjAddr: 0x8088, symBinAddr: 0x100008CB0, symSize: 0x50 }
  - { offsetInCU: 0x13CEF, offset: 0x13CEF, size: 0x8, addend: 0x0, symName: __ZNSt3__19allocatorINS_20__shared_ptr_emplaceI5metalNS0_IS2_EEEEEC1B8ue170006IS2_EERKNS0_IT_EE, symObjAddr: 0x80D8, symBinAddr: 0x100008D00, symSize: 0x34 }
  - { offsetInCU: 0x13D2D, offset: 0x13D2D, size: 0x8, addend: 0x0, symName: __ZNSt3__116allocator_traitsINS_9allocatorINS_20__shared_ptr_emplaceI5metalNS1_IS3_EEEEEEE8allocateB8ue170006ERS6_m, symObjAddr: 0x810C, symBinAddr: 0x100008D34, symSize: 0x2C }
  - { offsetInCU: 0x13D60, offset: 0x13D60, size: 0x8, addend: 0x0, symName: __ZNSt3__19allocatorINS_20__shared_ptr_emplaceI5metalNS0_IS2_EEEEEC2B8ue170006IS2_EERKNS0_IT_EE, symObjAddr: 0x8138, symBinAddr: 0x100008D60, symSize: 0x30 }
  - { offsetInCU: 0x13D9E, offset: 0x13D9E, size: 0x8, addend: 0x0, symName: __ZNSt3__116__non_trivial_ifILb1ENS_9allocatorINS_20__shared_ptr_emplaceI5metalNS1_IS3_EEEEEEEC2B8ue170006Ev, symObjAddr: 0x8168, symBinAddr: 0x100008D90, symSize: 0x14 }
  - { offsetInCU: 0x13DC8, offset: 0x13DC8, size: 0x8, addend: 0x0, symName: __ZNSt3__19allocatorINS_20__shared_ptr_emplaceI5metalNS0_IS2_EEEEE8allocateB8ue170006Em, symObjAddr: 0x817C, symBinAddr: 0x100008DA4, symSize: 0x58 }
  - { offsetInCU: 0x13E06, offset: 0x13E06, size: 0x8, addend: 0x0, symName: __ZNSt3__116allocator_traitsINS_9allocatorINS_20__shared_ptr_emplaceI5metalNS1_IS3_EEEEEEE8max_sizeB8ue170006IS6_vEEmRKS6_, symObjAddr: 0x81D4, symBinAddr: 0x100008DFC, symSize: 0x24 }
  - { offsetInCU: 0x13E34, offset: 0x13E34, size: 0x8, addend: 0x0, symName: __ZNKSt3__19allocatorINS_20__shared_ptr_emplaceI5metalNS0_IS2_EEEEE8max_sizeB8ue170006Ev, symObjAddr: 0x81F8, symBinAddr: 0x100008E20, symSize: 0x14 }
  - { offsetInCU: 0x13E5A, offset: 0x13E5A, size: 0x8, addend: 0x0, symName: __ZNSt3__120__shared_ptr_emplaceI5metalNS_9allocatorIS1_EEEC2B8ue170006IJR4vec3RdEEES3_DpOT_, symObjAddr: 0x820C, symBinAddr: 0x100008E34, symSize: 0xC4 }
  - { offsetInCU: 0x13EC1, offset: 0x13EC1, size: 0x8, addend: 0x0, symName: __ZNSt3__120__shared_ptr_emplaceI5metalNS_9allocatorIS1_EEE8_StorageC1B8ue170006EOS3_, symObjAddr: 0x82D0, symBinAddr: 0x100008EF8, symSize: 0x34 }
  - { offsetInCU: 0x13EFA, offset: 0x13EFA, size: 0x8, addend: 0x0, symName: __ZN5metalC1ERK4vec3d, symObjAddr: 0x8304, symBinAddr: 0x100008F2C, symSize: 0x3C }
  - { offsetInCU: 0x13F40, offset: 0x13F40, size: 0x8, addend: 0x0, symName: __ZNSt3__120__shared_ptr_emplaceI5metalNS_9allocatorIS1_EEE8_StorageD1B8ue170006Ev, symObjAddr: 0x8340, symBinAddr: 0x100008F68, symSize: 0x2C }
  - { offsetInCU: 0x13F6A, offset: 0x13F6A, size: 0x8, addend: 0x0, symName: __ZNSt3__120__shared_ptr_emplaceI5metalNS_9allocatorIS1_EEED1Ev, symObjAddr: 0x836C, symBinAddr: 0x100008F94, symSize: 0x2C }
  - { offsetInCU: 0x13F97, offset: 0x13F97, size: 0x8, addend: 0x0, symName: __ZNSt3__120__shared_ptr_emplaceI5metalNS_9allocatorIS1_EEED0Ev, symObjAddr: 0x8398, symBinAddr: 0x100008FC0, symSize: 0x30 }
  - { offsetInCU: 0x13FC4, offset: 0x13FC4, size: 0x8, addend: 0x0, symName: __ZNSt3__120__shared_ptr_emplaceI5metalNS_9allocatorIS1_EEE16__on_zero_sharedEv, symObjAddr: 0x83C8, symBinAddr: 0x100008FF0, symSize: 0x30 }
  - { offsetInCU: 0x13FEA, offset: 0x13FEA, size: 0x8, addend: 0x0, symName: __ZNSt3__120__shared_ptr_emplaceI5metalNS_9allocatorIS1_EEE21__on_zero_shared_weakEv, symObjAddr: 0x83F8, symBinAddr: 0x100009020, symSize: 0x5C }
  - { offsetInCU: 0x1402B, offset: 0x1402B, size: 0x8, addend: 0x0, symName: __ZNSt3__120__shared_ptr_emplaceI5metalNS_9allocatorIS1_EEE8_StorageC2B8ue170006EOS3_, symObjAddr: 0x8454, symBinAddr: 0x10000907C, symSize: 0x30 }
  - { offsetInCU: 0x14064, offset: 0x14064, size: 0x8, addend: 0x0, symName: __ZNSt3__120__shared_ptr_emplaceI5metalNS_9allocatorIS1_EEE8_Storage11__get_allocB8ue170006Ev, symObjAddr: 0x8484, symBinAddr: 0x1000090AC, symSize: 0x3C }
  - { offsetInCU: 0x140B7, offset: 0x140B7, size: 0x8, addend: 0x0, symName: __ZNSt3__117__compressed_pairINS_9allocatorI5metalEES2_E16__get_first_baseB8ue170006EPS4_, symObjAddr: 0x84C0, symBinAddr: 0x1000090E8, symSize: 0x14 }
  - { offsetInCU: 0x140DA, offset: 0x140DA, size: 0x8, addend: 0x0, symName: __ZN5metalC2ERK4vec3d, symObjAddr: 0x84D4, symBinAddr: 0x1000090FC, symSize: 0xA8 }
  - { offsetInCU: 0x14120, offset: 0x14120, size: 0x8, addend: 0x0, symName: __ZN5metalD1Ev, symObjAddr: 0x857C, symBinAddr: 0x1000091A4, symSize: 0x2C }
  - { offsetInCU: 0x1414C, offset: 0x1414C, size: 0x8, addend: 0x0, symName: __ZN5metalD0Ev, symObjAddr: 0x85A8, symBinAddr: 0x1000091D0, symSize: 0x30 }
  - { offsetInCU: 0x14178, offset: 0x14178, size: 0x8, addend: 0x0, symName: __ZNK5metal7scatterERK3rayRK10hit_recordR4vec3RS0_, symObjAddr: 0x85D8, symBinAddr: 0x100009200, symSize: 0x14C }
  - { offsetInCU: 0x141E5, offset: 0x141E5, size: 0x8, addend: 0x0, symName: __ZN5metalD2Ev, symObjAddr: 0x8724, symBinAddr: 0x10000934C, symSize: 0x2C }
  - { offsetInCU: 0x14210, offset: 0x14210, size: 0x8, addend: 0x0, symName: __Z7reflectRK4vec3S1_, symObjAddr: 0x8750, symBinAddr: 0x100009378, symSize: 0x78 }
  - { offsetInCU: 0x1424B, offset: 0x1424B, size: 0x8, addend: 0x0, symName: __ZNSt3__120__shared_ptr_emplaceI5metalNS_9allocatorIS1_EEE8_StorageD2B8ue170006Ev, symObjAddr: 0x87C8, symBinAddr: 0x1000093F0, symSize: 0x2C }
  - { offsetInCU: 0x14275, offset: 0x14275, size: 0x8, addend: 0x0, symName: __ZNSt3__120__shared_ptr_emplaceI5metalNS_9allocatorIS1_EEED2Ev, symObjAddr: 0x87F4, symBinAddr: 0x10000941C, symSize: 0x48 }
  - { offsetInCU: 0x142A2, offset: 0x142A2, size: 0x8, addend: 0x0, symName: __ZNSt3__120__shared_ptr_emplaceI5metalNS_9allocatorIS1_EEE11__get_allocB8ue170006Ev, symObjAddr: 0x883C, symBinAddr: 0x100009464, symSize: 0x28 }
  - { offsetInCU: 0x142C8, offset: 0x142C8, size: 0x8, addend: 0x0, symName: __ZNSt3__116allocator_traitsINS_9allocatorINS_20__shared_ptr_emplaceI5metalNS1_IS3_EEEEEEE10deallocateB8ue170006ERS6_PS5_m, symObjAddr: 0x8864, symBinAddr: 0x10000948C, symSize: 0x34 }
  - { offsetInCU: 0x1430A, offset: 0x1430A, size: 0x8, addend: 0x0, symName: __ZNSt3__114pointer_traitsIPNS_20__shared_ptr_emplaceI5metalNS_9allocatorIS2_EEEEE10pointer_toB8ue170006ERS5_, symObjAddr: 0x8898, symBinAddr: 0x1000094C0, symSize: 0x14 }
  - { offsetInCU: 0x1432D, offset: 0x1432D, size: 0x8, addend: 0x0, symName: __ZNSt3__19allocatorINS_20__shared_ptr_emplaceI5metalNS0_IS2_EEEEE10deallocateB8ue170006EPS4_m, symObjAddr: 0x88AC, symBinAddr: 0x1000094D4, symSize: 0x40 }
  - { offsetInCU: 0x1436F, offset: 0x1436F, size: 0x8, addend: 0x0, symName: __ZNSt3__110shared_ptrI5metalEC1B8ue170006Ev, symObjAddr: 0x88EC, symBinAddr: 0x100009514, symSize: 0x2C }
  - { offsetInCU: 0x14399, offset: 0x14399, size: 0x8, addend: 0x0, symName: __ZNSt3__110shared_ptrI5metalE18__enable_weak_thisB8ue170006Ez, symObjAddr: 0x8918, symBinAddr: 0x100009540, symSize: 0x10 }
  - { offsetInCU: 0x143C0, offset: 0x143C0, size: 0x8, addend: 0x0, symName: __ZNSt3__110shared_ptrI5metalEC2B8ue170006Ev, symObjAddr: 0x8928, symBinAddr: 0x100009550, symSize: 0x1C }
  - { offsetInCU: 0x143EA, offset: 0x143EA, size: 0x8, addend: 0x0, symName: __ZNSt3__120__shared_ptr_emplaceI5metalNS_9allocatorIS1_EEE8_Storage10__get_elemB8ue170006Ev, symObjAddr: 0x8944, symBinAddr: 0x10000956C, symSize: 0x3C }
  - { offsetInCU: 0x1443D, offset: 0x1443D, size: 0x8, addend: 0x0, symName: __ZNSt3__117__compressed_pairINS_9allocatorI5metalEES2_E17__get_second_baseB8ue170006EPS4_, symObjAddr: 0x8980, symBinAddr: 0x1000095A8, symSize: 0x14 }
  - { offsetInCU: 0x14460, offset: 0x14460, size: 0x8, addend: 0x0, symName: __ZNSt3__118__allocation_guardINS_9allocatorINS_20__shared_ptr_emplaceI5metalNS1_IS3_EEEEEEED2B8ue170006Ev, symObjAddr: 0x8994, symBinAddr: 0x1000095BC, symSize: 0x2C }
  - { offsetInCU: 0x1448A, offset: 0x1448A, size: 0x8, addend: 0x0, symName: __ZNSt3__118__allocation_guardINS_9allocatorINS_20__shared_ptr_emplaceI5metalNS1_IS3_EEEEEEE9__destroyB8ue170006Ev, symObjAddr: 0x89C0, symBinAddr: 0x1000095E8, symSize: 0x4C }
  - { offsetInCU: 0x144B0, offset: 0x144B0, size: 0x8, addend: 0x0, symName: __ZNSt3__19allocatorI5metalEC2B8ue170006Ev, symObjAddr: 0x8A0C, symBinAddr: 0x100009634, symSize: 0x2C }
  - { offsetInCU: 0x144DA, offset: 0x144DA, size: 0x8, addend: 0x0, symName: __ZNSt3__116__non_trivial_ifILb1ENS_9allocatorI5metalEEEC2B8ue170006Ev, symObjAddr: 0x8A38, symBinAddr: 0x100009660, symSize: 0x14 }
  - { offsetInCU: 0x14504, offset: 0x14504, size: 0x8, addend: 0x0, symName: __ZNSt3__110shared_ptrI5metalED2B8ue170006Ev, symObjAddr: 0x8A4C, symBinAddr: 0x100009674, symSize: 0x54 }
  - { offsetInCU: 0x1452E, offset: 0x1452E, size: 0x8, addend: 0x0, symName: __ZNSt3__110shared_ptrI8materialEC1B8ue170006I5metalvEEONS0_IT_EE, symObjAddr: 0x8AA0, symBinAddr: 0x1000096C8, symSize: 0x34 }
  - { offsetInCU: 0x14571, offset: 0x14571, size: 0x8, addend: 0x0, symName: __ZNSt3__110shared_ptrI8materialEC2B8ue170006I5metalvEEONS0_IT_EE, symObjAddr: 0x8AD4, symBinAddr: 0x1000096FC, symSize: 0x40 }
  - { offsetInCU: 0x145B4, offset: 0x145B4, size: 0x8, addend: 0x0, symName: __ZNSt3__19allocatorI10dielectricEC1B8ue170006Ev, symObjAddr: 0x8BAC, symBinAddr: 0x1000097D4, symSize: 0x2C }
  - { offsetInCU: 0x14629, offset: 0x14629, size: 0x8, addend: 0x0, symName: __ZNSt3__118__allocation_guardINS_9allocatorINS_20__shared_ptr_emplaceI10dielectricNS1_IS3_EEEEEEEC1B8ue170006IS4_EET_m, symObjAddr: 0x8BD8, symBinAddr: 0x100009800, symSize: 0x34 }
  - { offsetInCU: 0x14678, offset: 0x14678, size: 0x8, addend: 0x0, symName: __ZNKSt3__118__allocation_guardINS_9allocatorINS_20__shared_ptr_emplaceI10dielectricNS1_IS3_EEEEEEE5__getB8ue170006Ev, symObjAddr: 0x8C0C, symBinAddr: 0x100009834, symSize: 0x18 }
  - { offsetInCU: 0x1469E, offset: 0x1469E, size: 0x8, addend: 0x0, symName: __ZNSt3__120__shared_ptr_emplaceI10dielectricNS_9allocatorIS1_EEEC1B8ue170006IJdEEES3_DpOT_, symObjAddr: 0x8C24, symBinAddr: 0x10000984C, symSize: 0x34 }
  - { offsetInCU: 0x146F1, offset: 0x146F1, size: 0x8, addend: 0x0, symName: __ZNSt3__118__allocation_guardINS_9allocatorINS_20__shared_ptr_emplaceI10dielectricNS1_IS3_EEEEEEE13__release_ptrB8ue170006Ev, symObjAddr: 0x8C58, symBinAddr: 0x100009880, symSize: 0x24 }
  - { offsetInCU: 0x14725, offset: 0x14725, size: 0x8, addend: 0x0, symName: __ZNSt3__110shared_ptrI10dielectricE27__create_with_control_blockB8ue170006IS1_NS_20__shared_ptr_emplaceIS1_NS_9allocatorIS1_EEEEEES2_PT_PT0_, symObjAddr: 0x8C7C, symBinAddr: 0x1000098A4, symSize: 0xA4 }
  - { offsetInCU: 0x1477A, offset: 0x1477A, size: 0x8, addend: 0x0, symName: __ZNSt3__120__shared_ptr_emplaceI10dielectricNS_9allocatorIS1_EEE10__get_elemB8ue170006Ev, symObjAddr: 0x8D20, symBinAddr: 0x100009948, symSize: 0x28 }
  - { offsetInCU: 0x147A0, offset: 0x147A0, size: 0x8, addend: 0x0, symName: __ZNSt3__118__allocation_guardINS_9allocatorINS_20__shared_ptr_emplaceI10dielectricNS1_IS3_EEEEEEED1B8ue170006Ev, symObjAddr: 0x8D48, symBinAddr: 0x100009970, symSize: 0x2C }
  - { offsetInCU: 0x147CA, offset: 0x147CA, size: 0x8, addend: 0x0, symName: __ZNSt3__118__allocation_guardINS_9allocatorINS_20__shared_ptr_emplaceI10dielectricNS1_IS3_EEEEEEEC2B8ue170006IS4_EET_m, symObjAddr: 0x8D74, symBinAddr: 0x10000999C, symSize: 0x50 }
  - { offsetInCU: 0x14819, offset: 0x14819, size: 0x8, addend: 0x0, symName: __ZNSt3__19allocatorINS_20__shared_ptr_emplaceI10dielectricNS0_IS2_EEEEEC1B8ue170006IS2_EERKNS0_IT_EE, symObjAddr: 0x8DC4, symBinAddr: 0x1000099EC, symSize: 0x34 }
  - { offsetInCU: 0x14857, offset: 0x14857, size: 0x8, addend: 0x0, symName: __ZNSt3__116allocator_traitsINS_9allocatorINS_20__shared_ptr_emplaceI10dielectricNS1_IS3_EEEEEEE8allocateB8ue170006ERS6_m, symObjAddr: 0x8DF8, symBinAddr: 0x100009A20, symSize: 0x2C }
  - { offsetInCU: 0x1488A, offset: 0x1488A, size: 0x8, addend: 0x0, symName: __ZNSt3__19allocatorINS_20__shared_ptr_emplaceI10dielectricNS0_IS2_EEEEEC2B8ue170006IS2_EERKNS0_IT_EE, symObjAddr: 0x8E24, symBinAddr: 0x100009A4C, symSize: 0x30 }
  - { offsetInCU: 0x148C8, offset: 0x148C8, size: 0x8, addend: 0x0, symName: __ZNSt3__116__non_trivial_ifILb1ENS_9allocatorINS_20__shared_ptr_emplaceI10dielectricNS1_IS3_EEEEEEEC2B8ue170006Ev, symObjAddr: 0x8E54, symBinAddr: 0x100009A7C, symSize: 0x14 }
  - { offsetInCU: 0x148F2, offset: 0x148F2, size: 0x8, addend: 0x0, symName: __ZNSt3__19allocatorINS_20__shared_ptr_emplaceI10dielectricNS0_IS2_EEEEE8allocateB8ue170006Em, symObjAddr: 0x8E68, symBinAddr: 0x100009A90, symSize: 0x5C }
  - { offsetInCU: 0x14930, offset: 0x14930, size: 0x8, addend: 0x0, symName: __ZNSt3__116allocator_traitsINS_9allocatorINS_20__shared_ptr_emplaceI10dielectricNS1_IS3_EEEEEEE8max_sizeB8ue170006IS6_vEEmRKS6_, symObjAddr: 0x8EC4, symBinAddr: 0x100009AEC, symSize: 0x24 }
  - { offsetInCU: 0x1495E, offset: 0x1495E, size: 0x8, addend: 0x0, symName: __ZNKSt3__19allocatorINS_20__shared_ptr_emplaceI10dielectricNS0_IS2_EEEEE8max_sizeB8ue170006Ev, symObjAddr: 0x8EE8, symBinAddr: 0x100009B10, symSize: 0x18 }
  - { offsetInCU: 0x14984, offset: 0x14984, size: 0x8, addend: 0x0, symName: __ZNSt3__120__shared_ptr_emplaceI10dielectricNS_9allocatorIS1_EEEC2B8ue170006IJdEEES3_DpOT_, symObjAddr: 0x8F00, symBinAddr: 0x100009B28, symSize: 0xBC }
  - { offsetInCU: 0x149D7, offset: 0x149D7, size: 0x8, addend: 0x0, symName: __ZNSt3__120__shared_ptr_emplaceI10dielectricNS_9allocatorIS1_EEE8_StorageC1B8ue170006EOS3_, symObjAddr: 0x8FBC, symBinAddr: 0x100009BE4, symSize: 0x34 }
  - { offsetInCU: 0x14A10, offset: 0x14A10, size: 0x8, addend: 0x0, symName: __ZN10dielectricC1Ed, symObjAddr: 0x8FF0, symBinAddr: 0x100009C18, symSize: 0x34 }
  - { offsetInCU: 0x14A48, offset: 0x14A48, size: 0x8, addend: 0x0, symName: __ZNSt3__120__shared_ptr_emplaceI10dielectricNS_9allocatorIS1_EEE8_StorageD1B8ue170006Ev, symObjAddr: 0x9024, symBinAddr: 0x100009C4C, symSize: 0x2C }
  - { offsetInCU: 0x14A72, offset: 0x14A72, size: 0x8, addend: 0x0, symName: __ZNSt3__120__shared_ptr_emplaceI10dielectricNS_9allocatorIS1_EEED1Ev, symObjAddr: 0x9050, symBinAddr: 0x100009C78, symSize: 0x2C }
  - { offsetInCU: 0x14A9F, offset: 0x14A9F, size: 0x8, addend: 0x0, symName: __ZNSt3__120__shared_ptr_emplaceI10dielectricNS_9allocatorIS1_EEED0Ev, symObjAddr: 0x907C, symBinAddr: 0x100009CA4, symSize: 0x30 }
  - { offsetInCU: 0x14ACC, offset: 0x14ACC, size: 0x8, addend: 0x0, symName: __ZNSt3__120__shared_ptr_emplaceI10dielectricNS_9allocatorIS1_EEE16__on_zero_sharedEv, symObjAddr: 0x90AC, symBinAddr: 0x100009CD4, symSize: 0x30 }
  - { offsetInCU: 0x14AF2, offset: 0x14AF2, size: 0x8, addend: 0x0, symName: __ZNSt3__120__shared_ptr_emplaceI10dielectricNS_9allocatorIS1_EEE21__on_zero_shared_weakEv, symObjAddr: 0x90DC, symBinAddr: 0x100009D04, symSize: 0x5C }
  - { offsetInCU: 0x14B33, offset: 0x14B33, size: 0x8, addend: 0x0, symName: __ZNSt3__120__shared_ptr_emplaceI10dielectricNS_9allocatorIS1_EEE8_StorageC2B8ue170006EOS3_, symObjAddr: 0x9138, symBinAddr: 0x100009D60, symSize: 0x30 }
  - { offsetInCU: 0x14B6C, offset: 0x14B6C, size: 0x8, addend: 0x0, symName: __ZNSt3__120__shared_ptr_emplaceI10dielectricNS_9allocatorIS1_EEE8_Storage11__get_allocB8ue170006Ev, symObjAddr: 0x9168, symBinAddr: 0x100009D90, symSize: 0x3C }
  - { offsetInCU: 0x14BBF, offset: 0x14BBF, size: 0x8, addend: 0x0, symName: __ZNSt3__117__compressed_pairINS_9allocatorI10dielectricEES2_E16__get_first_baseB8ue170006EPS4_, symObjAddr: 0x91A4, symBinAddr: 0x100009DCC, symSize: 0x14 }
  - { offsetInCU: 0x14BE2, offset: 0x14BE2, size: 0x8, addend: 0x0, symName: __ZN10dielectricC2Ed, symObjAddr: 0x91B8, symBinAddr: 0x100009DE0, symSize: 0x50 }
  - { offsetInCU: 0x14C1A, offset: 0x14C1A, size: 0x8, addend: 0x0, symName: __ZN10dielectricD1Ev, symObjAddr: 0x9208, symBinAddr: 0x100009E30, symSize: 0x2C }
  - { offsetInCU: 0x14C46, offset: 0x14C46, size: 0x8, addend: 0x0, symName: __ZN10dielectricD0Ev, symObjAddr: 0x9234, symBinAddr: 0x100009E5C, symSize: 0x30 }
  - { offsetInCU: 0x14C72, offset: 0x14C72, size: 0x8, addend: 0x0, symName: __ZNK10dielectric7scatterERK3rayRK10hit_recordR4vec3RS0_, symObjAddr: 0x9264, symBinAddr: 0x100009E8C, symSize: 0x208 }
  - { offsetInCU: 0x14D2A, offset: 0x14D2A, size: 0x8, addend: 0x0, symName: __ZN10dielectricD2Ev, symObjAddr: 0x946C, symBinAddr: 0x10000A094, symSize: 0x2C }
  - { offsetInCU: 0x14D56, offset: 0x14D56, size: 0x8, addend: 0x0, symName: __ZN10dielectric11reflectanceEdd, symObjAddr: 0x9498, symBinAddr: 0x10000A0C0, symSize: 0x80 }
  - { offsetInCU: 0x14D94, offset: 0x14D94, size: 0x8, addend: 0x0, symName: __Z7refractRK4vec3S1_d, symObjAddr: 0x9518, symBinAddr: 0x10000A140, symSize: 0x108 }
  - { offsetInCU: 0x14E08, offset: 0x14E08, size: 0x8, addend: 0x0, symName: __ZNSt3__120__shared_ptr_emplaceI10dielectricNS_9allocatorIS1_EEE8_StorageD2B8ue170006Ev, symObjAddr: 0x9658, symBinAddr: 0x10000A280, symSize: 0x2C }
  - { offsetInCU: 0x14E32, offset: 0x14E32, size: 0x8, addend: 0x0, symName: __ZNSt3__120__shared_ptr_emplaceI10dielectricNS_9allocatorIS1_EEED2Ev, symObjAddr: 0x9684, symBinAddr: 0x10000A2AC, symSize: 0x48 }
  - { offsetInCU: 0x14E5F, offset: 0x14E5F, size: 0x8, addend: 0x0, symName: __ZNSt3__120__shared_ptr_emplaceI10dielectricNS_9allocatorIS1_EEE11__get_allocB8ue170006Ev, symObjAddr: 0x96CC, symBinAddr: 0x10000A2F4, symSize: 0x28 }
  - { offsetInCU: 0x14E85, offset: 0x14E85, size: 0x8, addend: 0x0, symName: __ZNSt3__116allocator_traitsINS_9allocatorINS_20__shared_ptr_emplaceI10dielectricNS1_IS3_EEEEEEE10deallocateB8ue170006ERS6_PS5_m, symObjAddr: 0x96F4, symBinAddr: 0x10000A31C, symSize: 0x34 }
  - { offsetInCU: 0x14EC7, offset: 0x14EC7, size: 0x8, addend: 0x0, symName: __ZNSt3__114pointer_traitsIPNS_20__shared_ptr_emplaceI10dielectricNS_9allocatorIS2_EEEEE10pointer_toB8ue170006ERS5_, symObjAddr: 0x9728, symBinAddr: 0x10000A350, symSize: 0x14 }
  - { offsetInCU: 0x14EEA, offset: 0x14EEA, size: 0x8, addend: 0x0, symName: __ZNSt3__19allocatorINS_20__shared_ptr_emplaceI10dielectricNS0_IS2_EEEEE10deallocateB8ue170006EPS4_m, symObjAddr: 0x973C, symBinAddr: 0x10000A364, symSize: 0x44 }
  - { offsetInCU: 0x14F2C, offset: 0x14F2C, size: 0x8, addend: 0x0, symName: __ZNSt3__110shared_ptrI10dielectricEC1B8ue170006Ev, symObjAddr: 0x9780, symBinAddr: 0x10000A3A8, symSize: 0x2C }
  - { offsetInCU: 0x14F56, offset: 0x14F56, size: 0x8, addend: 0x0, symName: __ZNSt3__110shared_ptrI10dielectricE18__enable_weak_thisB8ue170006Ez, symObjAddr: 0x97AC, symBinAddr: 0x10000A3D4, symSize: 0x10 }
  - { offsetInCU: 0x14F7D, offset: 0x14F7D, size: 0x8, addend: 0x0, symName: __ZNSt3__110shared_ptrI10dielectricEC2B8ue170006Ev, symObjAddr: 0x97BC, symBinAddr: 0x10000A3E4, symSize: 0x1C }
  - { offsetInCU: 0x14FA7, offset: 0x14FA7, size: 0x8, addend: 0x0, symName: __ZNSt3__120__shared_ptr_emplaceI10dielectricNS_9allocatorIS1_EEE8_Storage10__get_elemB8ue170006Ev, symObjAddr: 0x97D8, symBinAddr: 0x10000A400, symSize: 0x3C }
  - { offsetInCU: 0x14FFA, offset: 0x14FFA, size: 0x8, addend: 0x0, symName: __ZNSt3__117__compressed_pairINS_9allocatorI10dielectricEES2_E17__get_second_baseB8ue170006EPS4_, symObjAddr: 0x9814, symBinAddr: 0x10000A43C, symSize: 0x14 }
  - { offsetInCU: 0x1501D, offset: 0x1501D, size: 0x8, addend: 0x0, symName: __ZNSt3__118__allocation_guardINS_9allocatorINS_20__shared_ptr_emplaceI10dielectricNS1_IS3_EEEEEEED2B8ue170006Ev, symObjAddr: 0x9828, symBinAddr: 0x10000A450, symSize: 0x2C }
  - { offsetInCU: 0x15047, offset: 0x15047, size: 0x8, addend: 0x0, symName: __ZNSt3__118__allocation_guardINS_9allocatorINS_20__shared_ptr_emplaceI10dielectricNS1_IS3_EEEEEEE9__destroyB8ue170006Ev, symObjAddr: 0x9854, symBinAddr: 0x10000A47C, symSize: 0x4C }
  - { offsetInCU: 0x1506D, offset: 0x1506D, size: 0x8, addend: 0x0, symName: __ZNSt3__19allocatorI10dielectricEC2B8ue170006Ev, symObjAddr: 0x98A0, symBinAddr: 0x10000A4C8, symSize: 0x2C }
  - { offsetInCU: 0x15097, offset: 0x15097, size: 0x8, addend: 0x0, symName: __ZNSt3__116__non_trivial_ifILb1ENS_9allocatorI10dielectricEEEC2B8ue170006Ev, symObjAddr: 0x98CC, symBinAddr: 0x10000A4F4, symSize: 0x14 }
  - { offsetInCU: 0x150C1, offset: 0x150C1, size: 0x8, addend: 0x0, symName: __ZNSt3__110shared_ptrI10dielectricED2B8ue170006Ev, symObjAddr: 0x98E0, symBinAddr: 0x10000A508, symSize: 0x54 }
  - { offsetInCU: 0x150EB, offset: 0x150EB, size: 0x8, addend: 0x0, symName: __ZNSt3__110shared_ptrI8materialEC1B8ue170006I10dielectricvEEONS0_IT_EE, symObjAddr: 0x9934, symBinAddr: 0x10000A55C, symSize: 0x34 }
  - { offsetInCU: 0x1512E, offset: 0x1512E, size: 0x8, addend: 0x0, symName: __ZNSt3__110shared_ptrI8materialEC2B8ue170006I10dielectricvEEONS0_IT_EE, symObjAddr: 0x9968, symBinAddr: 0x10000A590, symSize: 0x40 }
  - { offsetInCU: 0x15171, offset: 0x15171, size: 0x8, addend: 0x0, symName: __ZNSt3__120__shared_ptr_emplaceI6sphereNS_9allocatorIS1_EEEC1B8ue170006IJ4vec3dRNS_10shared_ptrI10dielectricEEEEES3_DpOT_, symObjAddr: 0x9A50, symBinAddr: 0x10000A678, symSize: 0x44 }
  - { offsetInCU: 0x151EC, offset: 0x151EC, size: 0x8, addend: 0x0, symName: __ZNSt3__120__shared_ptr_emplaceI6sphereNS_9allocatorIS1_EEEC2B8ue170006IJ4vec3dRNS_10shared_ptrI10dielectricEEEEES3_DpOT_, symObjAddr: 0x9A94, symBinAddr: 0x10000A6BC, symSize: 0x100 }
  - { offsetInCU: 0x15267, offset: 0x15267, size: 0x8, addend: 0x0, symName: __ZNSt3__110shared_ptrI8materialEC1B8ue170006I10dielectricvEERKNS0_IT_EE, symObjAddr: 0x9B94, symBinAddr: 0x10000A7BC, symSize: 0x34 }
  - { offsetInCU: 0x152AA, offset: 0x152AA, size: 0x8, addend: 0x0, symName: __ZNSt3__110shared_ptrI8materialEC2B8ue170006I10dielectricvEERKNS0_IT_EE, symObjAddr: 0x9BC8, symBinAddr: 0x10000A7F0, symSize: 0x70 }
  - { offsetInCU: 0x152ED, offset: 0x152ED, size: 0x8, addend: 0x0, symName: __ZNSt3__120__shared_ptr_emplaceI6sphereNS_9allocatorIS1_EEEC1B8ue170006IJ4vec3dRNS_10shared_ptrI10lambertianEEEEES3_DpOT_, symObjAddr: 0x9CE0, symBinAddr: 0x10000A908, symSize: 0x44 }
  - { offsetInCU: 0x15368, offset: 0x15368, size: 0x8, addend: 0x0, symName: __ZNSt3__120__shared_ptr_emplaceI6sphereNS_9allocatorIS1_EEEC2B8ue170006IJ4vec3dRNS_10shared_ptrI10lambertianEEEEES3_DpOT_, symObjAddr: 0x9D24, symBinAddr: 0x10000A94C, symSize: 0x100 }
  - { offsetInCU: 0x153E3, offset: 0x153E3, size: 0x8, addend: 0x0, symName: __ZNSt3__120__shared_ptr_emplaceI5metalNS_9allocatorIS1_EEEC1B8ue170006IJ4vec3dEEES3_DpOT_, symObjAddr: 0x9EC4, symBinAddr: 0x10000AAEC, symSize: 0x3C }
  - { offsetInCU: 0x1544A, offset: 0x1544A, size: 0x8, addend: 0x0, symName: __ZNSt3__120__shared_ptr_emplaceI5metalNS_9allocatorIS1_EEEC2B8ue170006IJ4vec3dEEES3_DpOT_, symObjAddr: 0x9F00, symBinAddr: 0x10000AB28, symSize: 0xC4 }
  - { offsetInCU: 0x154B1, offset: 0x154B1, size: 0x8, addend: 0x0, symName: __ZNSt3__120__shared_ptr_emplaceI6sphereNS_9allocatorIS1_EEEC1B8ue170006IJ4vec3dRNS_10shared_ptrI5metalEEEEES3_DpOT_, symObjAddr: 0xA06C, symBinAddr: 0x10000AC94, symSize: 0x44 }
  - { offsetInCU: 0x1552C, offset: 0x1552C, size: 0x8, addend: 0x0, symName: __ZNSt3__120__shared_ptr_emplaceI6sphereNS_9allocatorIS1_EEEC2B8ue170006IJ4vec3dRNS_10shared_ptrI5metalEEEEES3_DpOT_, symObjAddr: 0xA0B0, symBinAddr: 0x10000ACD8, symSize: 0x100 }
  - { offsetInCU: 0x155A7, offset: 0x155A7, size: 0x8, addend: 0x0, symName: __ZNSt3__110shared_ptrI8materialEC1B8ue170006I5metalvEERKNS0_IT_EE, symObjAddr: 0xA1B0, symBinAddr: 0x10000ADD8, symSize: 0x34 }
  - { offsetInCU: 0x155EA, offset: 0x155EA, size: 0x8, addend: 0x0, symName: __ZNSt3__110shared_ptrI8materialEC2B8ue170006I5metalvEERKNS0_IT_EE, symObjAddr: 0xA1E4, symBinAddr: 0x10000AE0C, symSize: 0x70 }
...
